
./bomb:     file format elf32-i386


Disassembly of section .init:

08048748 <_init>:
 8048748:	55                   	push   %ebp
 8048749:	89 e5                	mov    %esp,%ebp
 804874b:	53                   	push   %ebx
 804874c:	83 ec 04             	sub    $0x4,%esp
 804874f:	e8 00 00 00 00       	call   8048754 <_init+0xc>
 8048754:	5b                   	pop    %ebx
 8048755:	81 c3 ac 29 00 00    	add    $0x29ac,%ebx
 804875b:	8b 93 fc ff ff ff    	mov    -0x4(%ebx),%edx
 8048761:	85 d2                	test   %edx,%edx
 8048763:	74 05                	je     804876a <_init+0x22>
 8048765:	e8 d6 00 00 00       	call   8048840 <__gmon_start__@plt>
 804876a:	58                   	pop    %eax
 804876b:	5b                   	pop    %ebx
 804876c:	c9                   	leave  
 804876d:	c3                   	ret    

Disassembly of section .plt:

08048770 <read@plt-0x10>:
 8048770:	ff 35 04 b1 04 08    	pushl  0x804b104
 8048776:	ff 25 08 b1 04 08    	jmp    *0x804b108
 804877c:	00 00                	add    %al,(%eax)
	...

08048780 <read@plt>:
 8048780:	ff 25 0c b1 04 08    	jmp    *0x804b10c
 8048786:	68 00 00 00 00       	push   $0x0
 804878b:	e9 e0 ff ff ff       	jmp    8048770 <_init+0x28>

08048790 <printf@plt>:
 8048790:	ff 25 10 b1 04 08    	jmp    *0x804b110
 8048796:	68 08 00 00 00       	push   $0x8
 804879b:	e9 d0 ff ff ff       	jmp    8048770 <_init+0x28>

080487a0 <fflush@plt>:
 80487a0:	ff 25 14 b1 04 08    	jmp    *0x804b114
 80487a6:	68 10 00 00 00       	push   $0x10
 80487ab:	e9 c0 ff ff ff       	jmp    8048770 <_init+0x28>

080487b0 <memcpy@plt>:
 80487b0:	ff 25 18 b1 04 08    	jmp    *0x804b118
 80487b6:	68 18 00 00 00       	push   $0x18
 80487bb:	e9 b0 ff ff ff       	jmp    8048770 <_init+0x28>

080487c0 <fgets@plt>:
 80487c0:	ff 25 1c b1 04 08    	jmp    *0x804b11c
 80487c6:	68 20 00 00 00       	push   $0x20
 80487cb:	e9 a0 ff ff ff       	jmp    8048770 <_init+0x28>

080487d0 <signal@plt>:
 80487d0:	ff 25 20 b1 04 08    	jmp    *0x804b120
 80487d6:	68 28 00 00 00       	push   $0x28
 80487db:	e9 90 ff ff ff       	jmp    8048770 <_init+0x28>

080487e0 <sleep@plt>:
 80487e0:	ff 25 24 b1 04 08    	jmp    *0x804b124
 80487e6:	68 30 00 00 00       	push   $0x30
 80487eb:	e9 80 ff ff ff       	jmp    8048770 <_init+0x28>

080487f0 <alarm@plt>:
 80487f0:	ff 25 28 b1 04 08    	jmp    *0x804b128
 80487f6:	68 38 00 00 00       	push   $0x38
 80487fb:	e9 70 ff ff ff       	jmp    8048770 <_init+0x28>

08048800 <bcopy@plt>:
 8048800:	ff 25 2c b1 04 08    	jmp    *0x804b12c
 8048806:	68 40 00 00 00       	push   $0x40
 804880b:	e9 60 ff ff ff       	jmp    8048770 <_init+0x28>

08048810 <strcpy@plt>:
 8048810:	ff 25 30 b1 04 08    	jmp    *0x804b130
 8048816:	68 48 00 00 00       	push   $0x48
 804881b:	e9 50 ff ff ff       	jmp    8048770 <_init+0x28>

08048820 <getenv@plt>:
 8048820:	ff 25 34 b1 04 08    	jmp    *0x804b134
 8048826:	68 50 00 00 00       	push   $0x50
 804882b:	e9 40 ff ff ff       	jmp    8048770 <_init+0x28>

08048830 <puts@plt>:
 8048830:	ff 25 38 b1 04 08    	jmp    *0x804b138
 8048836:	68 58 00 00 00       	push   $0x58
 804883b:	e9 30 ff ff ff       	jmp    8048770 <_init+0x28>

08048840 <__gmon_start__@plt>:
 8048840:	ff 25 3c b1 04 08    	jmp    *0x804b13c
 8048846:	68 60 00 00 00       	push   $0x60
 804884b:	e9 20 ff ff ff       	jmp    8048770 <_init+0x28>

08048850 <exit@plt>:
 8048850:	ff 25 40 b1 04 08    	jmp    *0x804b140
 8048856:	68 68 00 00 00       	push   $0x68
 804885b:	e9 10 ff ff ff       	jmp    8048770 <_init+0x28>

08048860 <__libc_start_main@plt>:
 8048860:	ff 25 44 b1 04 08    	jmp    *0x804b144
 8048866:	68 70 00 00 00       	push   $0x70
 804886b:	e9 00 ff ff ff       	jmp    8048770 <_init+0x28>

08048870 <fprintf@plt>:
 8048870:	ff 25 48 b1 04 08    	jmp    *0x804b148
 8048876:	68 78 00 00 00       	push   $0x78
 804887b:	e9 f0 fe ff ff       	jmp    8048770 <_init+0x28>

08048880 <write@plt>:
 8048880:	ff 25 4c b1 04 08    	jmp    *0x804b14c
 8048886:	68 80 00 00 00       	push   $0x80
 804888b:	e9 e0 fe ff ff       	jmp    8048770 <_init+0x28>

08048890 <__isoc99_sscanf@plt>:
 8048890:	ff 25 50 b1 04 08    	jmp    *0x804b150
 8048896:	68 88 00 00 00       	push   $0x88
 804889b:	e9 d0 fe ff ff       	jmp    8048770 <_init+0x28>

080488a0 <fopen@plt>:
 80488a0:	ff 25 54 b1 04 08    	jmp    *0x804b154
 80488a6:	68 90 00 00 00       	push   $0x90
 80488ab:	e9 c0 fe ff ff       	jmp    8048770 <_init+0x28>

080488b0 <__errno_location@plt>:
 80488b0:	ff 25 58 b1 04 08    	jmp    *0x804b158
 80488b6:	68 98 00 00 00       	push   $0x98
 80488bb:	e9 b0 fe ff ff       	jmp    8048770 <_init+0x28>

080488c0 <sprintf@plt>:
 80488c0:	ff 25 5c b1 04 08    	jmp    *0x804b15c
 80488c6:	68 a0 00 00 00       	push   $0xa0
 80488cb:	e9 a0 fe ff ff       	jmp    8048770 <_init+0x28>

080488d0 <socket@plt>:
 80488d0:	ff 25 60 b1 04 08    	jmp    *0x804b160
 80488d6:	68 a8 00 00 00       	push   $0xa8
 80488db:	e9 90 fe ff ff       	jmp    8048770 <_init+0x28>

080488e0 <gethostbyname@plt>:
 80488e0:	ff 25 64 b1 04 08    	jmp    *0x804b164
 80488e6:	68 b0 00 00 00       	push   $0xb0
 80488eb:	e9 80 fe ff ff       	jmp    8048770 <_init+0x28>

080488f0 <strtol@plt>:
 80488f0:	ff 25 68 b1 04 08    	jmp    *0x804b168
 80488f6:	68 b8 00 00 00       	push   $0xb8
 80488fb:	e9 70 fe ff ff       	jmp    8048770 <_init+0x28>

08048900 <connect@plt>:
 8048900:	ff 25 6c b1 04 08    	jmp    *0x804b16c
 8048906:	68 c0 00 00 00       	push   $0xc0
 804890b:	e9 60 fe ff ff       	jmp    8048770 <_init+0x28>

08048910 <close@plt>:
 8048910:	ff 25 70 b1 04 08    	jmp    *0x804b170
 8048916:	68 c8 00 00 00       	push   $0xc8
 804891b:	e9 50 fe ff ff       	jmp    8048770 <_init+0x28>

08048920 <__ctype_b_loc@plt>:
 8048920:	ff 25 74 b1 04 08    	jmp    *0x804b174
 8048926:	68 d0 00 00 00       	push   $0xd0
 804892b:	e9 40 fe ff ff       	jmp    8048770 <_init+0x28>

Disassembly of section .text:

08048930 <_start>:
 8048930:	31 ed                	xor    %ebp,%ebp
 8048932:	5e                   	pop    %esi
 8048933:	89 e1                	mov    %esp,%ecx
 8048935:	83 e4 f0             	and    $0xfffffff0,%esp
 8048938:	50                   	push   %eax
 8048939:	54                   	push   %esp
 804893a:	52                   	push   %edx
 804893b:	68 00 9f 04 08       	push   $0x8049f00
 8048940:	68 10 9f 04 08       	push   $0x8049f10
 8048945:	51                   	push   %ecx
 8048946:	56                   	push   %esi
 8048947:	68 1c 8a 04 08       	push   $0x8048a1c
 804894c:	e8 0f ff ff ff       	call   8048860 <__libc_start_main@plt>
 8048951:	f4                   	hlt    
 8048952:	90                   	nop
 8048953:	90                   	nop
 8048954:	90                   	nop
 8048955:	90                   	nop
 8048956:	90                   	nop
 8048957:	90                   	nop
 8048958:	90                   	nop
 8048959:	90                   	nop
 804895a:	90                   	nop
 804895b:	90                   	nop
 804895c:	90                   	nop
 804895d:	90                   	nop
 804895e:	90                   	nop
 804895f:	90                   	nop

08048960 <deregister_tm_clones>:
 8048960:	b8 a3 b4 04 08       	mov    $0x804b4a3,%eax
 8048965:	2d a0 b4 04 08       	sub    $0x804b4a0,%eax
 804896a:	83 f8 06             	cmp    $0x6,%eax
 804896d:	77 02                	ja     8048971 <deregister_tm_clones+0x11>
 804896f:	f3 c3                	repz ret 
 8048971:	b8 00 00 00 00       	mov    $0x0,%eax
 8048976:	85 c0                	test   %eax,%eax
 8048978:	74 f5                	je     804896f <deregister_tm_clones+0xf>
 804897a:	55                   	push   %ebp
 804897b:	89 e5                	mov    %esp,%ebp
 804897d:	83 ec 18             	sub    $0x18,%esp
 8048980:	c7 04 24 a0 b4 04 08 	movl   $0x804b4a0,(%esp)
 8048987:	ff d0                	call   *%eax
 8048989:	c9                   	leave  
 804898a:	c3                   	ret    
 804898b:	90                   	nop
 804898c:	8d 74 26 00          	lea    0x0(%esi,%eiz,1),%esi

08048990 <register_tm_clones>:
 8048990:	b8 a0 b4 04 08       	mov    $0x804b4a0,%eax
 8048995:	2d a0 b4 04 08       	sub    $0x804b4a0,%eax
 804899a:	c1 f8 02             	sar    $0x2,%eax
 804899d:	89 c2                	mov    %eax,%edx
 804899f:	c1 ea 1f             	shr    $0x1f,%edx
 80489a2:	01 d0                	add    %edx,%eax
 80489a4:	d1 f8                	sar    %eax
 80489a6:	75 02                	jne    80489aa <register_tm_clones+0x1a>
 80489a8:	f3 c3                	repz ret 
 80489aa:	ba 00 00 00 00       	mov    $0x0,%edx
 80489af:	85 d2                	test   %edx,%edx
 80489b1:	74 f5                	je     80489a8 <register_tm_clones+0x18>
 80489b3:	55                   	push   %ebp
 80489b4:	89 e5                	mov    %esp,%ebp
 80489b6:	83 ec 18             	sub    $0x18,%esp
 80489b9:	89 44 24 04          	mov    %eax,0x4(%esp)
 80489bd:	c7 04 24 a0 b4 04 08 	movl   $0x804b4a0,(%esp)
 80489c4:	ff d2                	call   *%edx
 80489c6:	c9                   	leave  
 80489c7:	c3                   	ret    
 80489c8:	90                   	nop
 80489c9:	8d b4 26 00 00 00 00 	lea    0x0(%esi,%eiz,1),%esi

080489d0 <__do_global_dtors_aux>:
 80489d0:	80 3d c4 b4 04 08 00 	cmpb   $0x0,0x804b4c4
 80489d7:	75 13                	jne    80489ec <__do_global_dtors_aux+0x1c>
 80489d9:	55                   	push   %ebp
 80489da:	89 e5                	mov    %esp,%ebp
 80489dc:	83 ec 08             	sub    $0x8,%esp
 80489df:	e8 7c ff ff ff       	call   8048960 <deregister_tm_clones>
 80489e4:	c6 05 c4 b4 04 08 01 	movb   $0x1,0x804b4c4
 80489eb:	c9                   	leave  
 80489ec:	f3 c3                	repz ret 
 80489ee:	66 90                	xchg   %ax,%ax

080489f0 <frame_dummy>:
 80489f0:	a1 08 b0 04 08       	mov    0x804b008,%eax
 80489f5:	85 c0                	test   %eax,%eax
 80489f7:	74 1e                	je     8048a17 <frame_dummy+0x27>
 80489f9:	b8 00 00 00 00       	mov    $0x0,%eax
 80489fe:	85 c0                	test   %eax,%eax
 8048a00:	74 15                	je     8048a17 <frame_dummy+0x27>
 8048a02:	55                   	push   %ebp
 8048a03:	89 e5                	mov    %esp,%ebp
 8048a05:	83 ec 18             	sub    $0x18,%esp
 8048a08:	c7 04 24 08 b0 04 08 	movl   $0x804b008,(%esp)
 8048a0f:	ff d0                	call   *%eax
 8048a11:	c9                   	leave  
 8048a12:	e9 79 ff ff ff       	jmp    8048990 <register_tm_clones>
 8048a17:	e9 74 ff ff ff       	jmp    8048990 <register_tm_clones>

08048a1c <main>:
 8048a1c:	55                   	push   %ebp
 8048a1d:	89 e5                	mov    %esp,%ebp
 8048a1f:	53                   	push   %ebx
 8048a20:	83 e4 f0             	and    $0xfffffff0,%esp
 8048a23:	83 ec 10             	sub    $0x10,%esp
 8048a26:	8b 45 08             	mov    0x8(%ebp),%eax
 8048a29:	8b 5d 0c             	mov    0xc(%ebp),%ebx
 8048a2c:	83 f8 01             	cmp    $0x1,%eax
 8048a2f:	75 0c                	jne    8048a3d <main+0x21>
 8048a31:	a1 a4 b4 04 08       	mov    0x804b4a4,%eax
 8048a36:	a3 cc b4 04 08       	mov    %eax,0x804b4cc
 8048a3b:	eb 64                	jmp    8048aa1 <main+0x85>
 8048a3d:	83 f8 02             	cmp    $0x2,%eax
 8048a40:	75 41                	jne    8048a83 <main+0x67>
 8048a42:	c7 44 24 04 90 9f 04 	movl   $0x8049f90,0x4(%esp)
 8048a49:	08 
 8048a4a:	8b 43 04             	mov    0x4(%ebx),%eax
 8048a4d:	89 04 24             	mov    %eax,(%esp)
 8048a50:	e8 4b fe ff ff       	call   80488a0 <fopen@plt>
 8048a55:	a3 cc b4 04 08       	mov    %eax,0x804b4cc
 8048a5a:	85 c0                	test   %eax,%eax
 8048a5c:	75 43                	jne    8048aa1 <main+0x85>
 8048a5e:	8b 43 04             	mov    0x4(%ebx),%eax
 8048a61:	89 44 24 08          	mov    %eax,0x8(%esp)
 8048a65:	8b 03                	mov    (%ebx),%eax
 8048a67:	89 44 24 04          	mov    %eax,0x4(%esp)
 8048a6b:	c7 04 24 92 9f 04 08 	movl   $0x8049f92,(%esp)
 8048a72:	e8 19 fd ff ff       	call   8048790 <printf@plt>
 8048a77:	c7 04 24 08 00 00 00 	movl   $0x8,(%esp)
 8048a7e:	e8 cd fd ff ff       	call   8048850 <exit@plt>
 8048a83:	8b 03                	mov    (%ebx),%eax
 8048a85:	89 44 24 04          	mov    %eax,0x4(%esp)
 8048a89:	c7 04 24 af 9f 04 08 	movl   $0x8049faf,(%esp)
 8048a90:	e8 fb fc ff ff       	call   8048790 <printf@plt>
 8048a95:	c7 04 24 08 00 00 00 	movl   $0x8,(%esp)
 8048a9c:	e8 af fd ff ff       	call   8048850 <exit@plt>
 8048aa1:	e8 e2 05 00 00       	call   8049088 <initialize_bomb>
 8048aa6:	c7 04 24 14 a0 04 08 	movl   $0x804a014,(%esp)
 8048aad:	e8 7e fd ff ff       	call   8048830 <puts@plt>
 8048ab2:	c7 04 24 50 a0 04 08 	movl   $0x804a050,(%esp)
 8048ab9:	e8 72 fd ff ff       	call   8048830 <puts@plt>
 8048abe:	e8 8b 06 00 00       	call   804914e <read_line>
 8048ac3:	89 04 24             	mov    %eax,(%esp)
 8048ac6:	e8 a5 00 00 00       	call   8048b70 <phase_1>
 8048acb:	e8 da 07 00 00       	call   80492aa <phase_defused>
 8048ad0:	c7 04 24 7c a0 04 08 	movl   $0x804a07c,(%esp)
 8048ad7:	e8 54 fd ff ff       	call   8048830 <puts@plt>
 8048adc:	e8 6d 06 00 00       	call   804914e <read_line>
 8048ae1:	89 04 24             	mov    %eax,(%esp)
 8048ae4:	e8 ab 00 00 00       	call   8048b94 <phase_2>
 8048ae9:	e8 bc 07 00 00       	call   80492aa <phase_defused>
 8048aee:	c7 04 24 c9 9f 04 08 	movl   $0x8049fc9,(%esp)
 8048af5:	e8 36 fd ff ff       	call   8048830 <puts@plt>
 8048afa:	e8 4f 06 00 00       	call   804914e <read_line>
 8048aff:	89 04 24             	mov    %eax,(%esp)
 8048b02:	e8 e3 00 00 00       	call   8048bea <phase_3>
 8048b07:	e8 9e 07 00 00       	call   80492aa <phase_defused>
 8048b0c:	c7 04 24 e7 9f 04 08 	movl   $0x8049fe7,(%esp)
 8048b13:	e8 18 fd ff ff       	call   8048830 <puts@plt>
 8048b18:	e8 31 06 00 00       	call   804914e <read_line>
 8048b1d:	89 04 24             	mov    %eax,(%esp)
 8048b20:	e8 e0 01 00 00       	call   8048d05 <phase_4>
 8048b25:	e8 80 07 00 00       	call   80492aa <phase_defused>
 8048b2a:	c7 04 24 a8 a0 04 08 	movl   $0x804a0a8,(%esp)
 8048b31:	e8 fa fc ff ff       	call   8048830 <puts@plt>
 8048b36:	e8 13 06 00 00       	call   804914e <read_line>
 8048b3b:	89 04 24             	mov    %eax,(%esp)
 8048b3e:	e8 24 02 00 00       	call   8048d67 <phase_5>
 8048b43:	e8 62 07 00 00       	call   80492aa <phase_defused>
 8048b48:	c7 04 24 f6 9f 04 08 	movl   $0x8049ff6,(%esp)
 8048b4f:	e8 dc fc ff ff       	call   8048830 <puts@plt>
 8048b54:	e8 f5 05 00 00       	call   804914e <read_line>
 8048b59:	89 04 24             	mov    %eax,(%esp)
 8048b5c:	e8 6d 02 00 00       	call   8048dce <phase_6>
 8048b61:	e8 44 07 00 00       	call   80492aa <phase_defused>
 8048b66:	b8 00 00 00 00       	mov    $0x0,%eax
 8048b6b:	8b 5d fc             	mov    -0x4(%ebp),%ebx
 8048b6e:	c9                   	leave  
 8048b6f:	c3                   	ret    

08048b70 <phase_1>:
 8048b70:	83 ec 1c             	sub    $0x1c,%esp
 8048b73:	c7 44 24 04 cc a0 04 	movl   $0x804a0cc,0x4(%esp)
 8048b7a:	08 
 8048b7b:	8b 44 24 20          	mov    0x20(%esp),%eax
 8048b7f:	89 04 24             	mov    %eax,(%esp)
 8048b82:	e8 93 04 00 00       	call   804901a <strings_not_equal>
 8048b87:	85 c0                	test   %eax,%eax
 8048b89:	74 05                	je     8048b90 <phase_1+0x20>
 8048b8b:	e8 97 05 00 00       	call   8049127 <explode_bomb>
 8048b90:	83 c4 1c             	add    $0x1c,%esp
 8048b93:	c3                   	ret    

08048b94 <phase_2>:
 8048b94:	56                   	push   %esi
 8048b95:	53                   	push   %ebx
 8048b96:	83 ec 34             	sub    $0x34,%esp
 8048b99:	8d 44 24 18          	lea    0x18(%esp),%eax
 8048b9d:	89 44 24 04          	mov    %eax,0x4(%esp)
 8048ba1:	8b 44 24 40          	mov    0x40(%esp),%eax
 8048ba5:	89 04 24             	mov    %eax,(%esp)
 8048ba8:	e8 ad 06 00 00       	call   804925a <read_six_numbers>
 8048bad:	83 7c 24 18 00       	cmpl   $0x0,0x18(%esp)
 8048bb2:	75 07                	jne    8048bbb <phase_2+0x27>
 8048bb4:	83 7c 24 1c 01       	cmpl   $0x1,0x1c(%esp)
 8048bb9:	74 1f                	je     8048bda <phase_2+0x46>
 8048bbb:	e8 67 05 00 00       	call   8049127 <explode_bomb>
 8048bc0:	eb 18                	jmp    8048bda <phase_2+0x46>
 8048bc2:	8b 43 f8             	mov    -0x8(%ebx),%eax
 8048bc5:	03 43 fc             	add    -0x4(%ebx),%eax
 8048bc8:	39 03                	cmp    %eax,(%ebx)
 8048bca:	74 05                	je     8048bd1 <phase_2+0x3d>
 8048bcc:	e8 56 05 00 00       	call   8049127 <explode_bomb>
 8048bd1:	83 c3 04             	add    $0x4,%ebx
 8048bd4:	39 f3                	cmp    %esi,%ebx
 8048bd6:	75 ea                	jne    8048bc2 <phase_2+0x2e>
 8048bd8:	eb 0a                	jmp    8048be4 <phase_2+0x50>
 8048bda:	8d 5c 24 20          	lea    0x20(%esp),%ebx
 8048bde:	8d 74 24 30          	lea    0x30(%esp),%esi
 8048be2:	eb de                	jmp    8048bc2 <phase_2+0x2e>
 8048be4:	83 c4 34             	add    $0x34,%esp
 8048be7:	5b                   	pop    %ebx
 8048be8:	5e                   	pop    %esi
 8048be9:	c3                   	ret    

08048bea <phase_3>:
 8048bea:	83 ec 2c             	sub    $0x2c,%esp
 8048bed:	8d 44 24 18          	lea    0x18(%esp),%eax
 8048bf1:	89 44 24 0c          	mov    %eax,0xc(%esp)
 8048bf5:	8d 44 24 1c          	lea    0x1c(%esp),%eax
 8048bf9:	89 44 24 08          	mov    %eax,0x8(%esp)
 8048bfd:	c7 44 24 04 bb a2 04 	movl   $0x804a2bb,0x4(%esp)
 8048c04:	08 
 8048c05:	8b 44 24 30          	mov    0x30(%esp),%eax
 8048c09:	89 04 24             	mov    %eax,(%esp)
 8048c0c:	e8 7f fc ff ff       	call   8048890 <__isoc99_sscanf@plt>
 8048c11:	83 f8 01             	cmp    $0x1,%eax
 8048c14:	7f 05                	jg     8048c1b <phase_3+0x31>
 8048c16:	e8 0c 05 00 00       	call   8049127 <explode_bomb>
 8048c1b:	83 7c 24 1c 07       	cmpl   $0x7,0x1c(%esp)
 8048c20:	77 66                	ja     8048c88 <phase_3+0x9e>
 8048c22:	8b 44 24 1c          	mov    0x1c(%esp),%eax
 8048c26:	ff 24 85 28 a1 04 08 	jmp    *0x804a128(,%eax,4)
 8048c2d:	b8 00 00 00 00       	mov    $0x0,%eax
 8048c32:	eb 05                	jmp    8048c39 <phase_3+0x4f>
 8048c34:	b8 f8 01 00 00       	mov    $0x1f8,%eax
 8048c39:	2d 29 03 00 00       	sub    $0x329,%eax
 8048c3e:	eb 05                	jmp    8048c45 <phase_3+0x5b>
 8048c40:	b8 00 00 00 00       	mov    $0x0,%eax
 8048c45:	05 ed 01 00 00       	add    $0x1ed,%eax
 8048c4a:	eb 05                	jmp    8048c51 <phase_3+0x67>
 8048c4c:	b8 00 00 00 00       	mov    $0x0,%eax
 8048c51:	2d 97 01 00 00       	sub    $0x197,%eax
 8048c56:	eb 05                	jmp    8048c5d <phase_3+0x73>
 8048c58:	b8 00 00 00 00       	mov    $0x0,%eax
 8048c5d:	05 97 01 00 00       	add    $0x197,%eax
 8048c62:	eb 05                	jmp    8048c69 <phase_3+0x7f>
 8048c64:	b8 00 00 00 00       	mov    $0x0,%eax
 8048c69:	2d 97 01 00 00       	sub    $0x197,%eax
 8048c6e:	eb 05                	jmp    8048c75 <phase_3+0x8b>
 8048c70:	b8 00 00 00 00       	mov    $0x0,%eax
 8048c75:	05 97 01 00 00       	add    $0x197,%eax
 8048c7a:	eb 05                	jmp    8048c81 <phase_3+0x97>
 8048c7c:	b8 00 00 00 00       	mov    $0x0,%eax
 8048c81:	2d 97 01 00 00       	sub    $0x197,%eax
 8048c86:	eb 0a                	jmp    8048c92 <phase_3+0xa8>
 8048c88:	e8 9a 04 00 00       	call   8049127 <explode_bomb>
 8048c8d:	b8 00 00 00 00       	mov    $0x0,%eax
 8048c92:	83 7c 24 1c 05       	cmpl   $0x5,0x1c(%esp)
 8048c97:	7f 06                	jg     8048c9f <phase_3+0xb5>
 8048c99:	3b 44 24 18          	cmp    0x18(%esp),%eax
 8048c9d:	74 05                	je     8048ca4 <phase_3+0xba>
 8048c9f:	e8 83 04 00 00       	call   8049127 <explode_bomb>
 8048ca4:	83 c4 2c             	add    $0x2c,%esp
 8048ca7:	c3                   	ret    

08048ca8 <func4>:
 8048ca8:	83 ec 1c             	sub    $0x1c,%esp
 8048cab:	89 5c 24 10          	mov    %ebx,0x10(%esp)
 8048caf:	89 74 24 14          	mov    %esi,0x14(%esp)
 8048cb3:	89 7c 24 18          	mov    %edi,0x18(%esp)
 8048cb7:	8b 74 24 20          	mov    0x20(%esp),%esi
 8048cbb:	8b 5c 24 24          	mov    0x24(%esp),%ebx
 8048cbf:	85 f6                	test   %esi,%esi
 8048cc1:	7e 2b                	jle    8048cee <func4+0x46>
 8048cc3:	83 fe 01             	cmp    $0x1,%esi
 8048cc6:	74 2b                	je     8048cf3 <func4+0x4b>
 8048cc8:	89 5c 24 04          	mov    %ebx,0x4(%esp)
 8048ccc:	8d 46 ff             	lea    -0x1(%esi),%eax
 8048ccf:	89 04 24             	mov    %eax,(%esp)
 8048cd2:	e8 d1 ff ff ff       	call   8048ca8 <func4>
 8048cd7:	8d 3c 18             	lea    (%eax,%ebx,1),%edi
 8048cda:	89 5c 24 04          	mov    %ebx,0x4(%esp)
 8048cde:	83 ee 02             	sub    $0x2,%esi
 8048ce1:	89 34 24             	mov    %esi,(%esp)
 8048ce4:	e8 bf ff ff ff       	call   8048ca8 <func4>
 8048ce9:	8d 1c 07             	lea    (%edi,%eax,1),%ebx
 8048cec:	eb 05                	jmp    8048cf3 <func4+0x4b>
 8048cee:	bb 00 00 00 00       	mov    $0x0,%ebx
 8048cf3:	89 d8                	mov    %ebx,%eax
 8048cf5:	8b 5c 24 10          	mov    0x10(%esp),%ebx
 8048cf9:	8b 74 24 14          	mov    0x14(%esp),%esi
 8048cfd:	8b 7c 24 18          	mov    0x18(%esp),%edi
 8048d01:	83 c4 1c             	add    $0x1c,%esp
 8048d04:	c3                   	ret    

08048d05 <phase_4>:
 8048d05:	83 ec 2c             	sub    $0x2c,%esp
 8048d08:	8d 44 24 1c          	lea    0x1c(%esp),%eax
 8048d0c:	89 44 24 0c          	mov    %eax,0xc(%esp)
 8048d10:	8d 44 24 18          	lea    0x18(%esp),%eax
 8048d14:	89 44 24 08          	mov    %eax,0x8(%esp)
 8048d18:	c7 44 24 04 bb a2 04 	movl   $0x804a2bb,0x4(%esp)
 8048d1f:	08 
 8048d20:	8b 44 24 30          	mov    0x30(%esp),%eax
 8048d24:	89 04 24             	mov    %eax,(%esp)
 8048d27:	e8 64 fb ff ff       	call   8048890 <__isoc99_sscanf@plt>
 8048d2c:	83 f8 02             	cmp    $0x2,%eax
 8048d2f:	75 0e                	jne    8048d3f <phase_4+0x3a>
 8048d31:	8b 44 24 1c          	mov    0x1c(%esp),%eax
 8048d35:	83 f8 01             	cmp    $0x1,%eax
 8048d38:	7e 05                	jle    8048d3f <phase_4+0x3a>
 8048d3a:	83 f8 04             	cmp    $0x4,%eax
 8048d3d:	7e 05                	jle    8048d44 <phase_4+0x3f>
 8048d3f:	e8 e3 03 00 00       	call   8049127 <explode_bomb>
 8048d44:	8b 44 24 1c          	mov    0x1c(%esp),%eax
 8048d48:	89 44 24 04          	mov    %eax,0x4(%esp)
 8048d4c:	c7 04 24 09 00 00 00 	movl   $0x9,(%esp)
 8048d53:	e8 50 ff ff ff       	call   8048ca8 <func4>
 8048d58:	3b 44 24 18          	cmp    0x18(%esp),%eax
 8048d5c:	74 05                	je     8048d63 <phase_4+0x5e>
 8048d5e:	e8 c4 03 00 00       	call   8049127 <explode_bomb>
 8048d63:	83 c4 2c             	add    $0x2c,%esp
 8048d66:	c3                   	ret    

08048d67 <phase_5>:
 8048d67:	53                   	push   %ebx
 8048d68:	83 ec 28             	sub    $0x28,%esp
 8048d6b:	8b 5c 24 30          	mov    0x30(%esp),%ebx
 8048d6f:	89 1c 24             	mov    %ebx,(%esp)
 8048d72:	e8 84 02 00 00       	call   8048ffb <string_length>
 8048d77:	83 f8 06             	cmp    $0x6,%eax
 8048d7a:	74 46                	je     8048dc2 <phase_5+0x5b>
 8048d7c:	e8 a6 03 00 00       	call   8049127 <explode_bomb>
 8048d81:	eb 3f                	jmp    8048dc2 <phase_5+0x5b>
 8048d83:	0f b6 14 03          	movzbl (%ebx,%eax,1),%edx
 8048d87:	83 e2 0f             	and    $0xf,%edx
 8048d8a:	0f b6 92 48 a1 04 08 	movzbl 0x804a148(%edx),%edx
 8048d91:	88 54 04 19          	mov    %dl,0x19(%esp,%eax,1)
 8048d95:	83 c0 01             	add    $0x1,%eax
 8048d98:	83 f8 06             	cmp    $0x6,%eax
 8048d9b:	75 e6                	jne    8048d83 <phase_5+0x1c>
 8048d9d:	c6 44 24 1f 00       	movb   $0x0,0x1f(%esp)
 8048da2:	c7 44 24 04 1e a1 04 	movl   $0x804a11e,0x4(%esp)
 8048da9:	08 
 8048daa:	8d 44 24 19          	lea    0x19(%esp),%eax
 8048dae:	89 04 24             	mov    %eax,(%esp)
 8048db1:	e8 64 02 00 00       	call   804901a <strings_not_equal>
 8048db6:	85 c0                	test   %eax,%eax
 8048db8:	74 0f                	je     8048dc9 <phase_5+0x62>
 8048dba:	e8 68 03 00 00       	call   8049127 <explode_bomb>
 8048dbf:	90                   	nop
 8048dc0:	eb 07                	jmp    8048dc9 <phase_5+0x62>
 8048dc2:	b8 00 00 00 00       	mov    $0x0,%eax
 8048dc7:	eb ba                	jmp    8048d83 <phase_5+0x1c>
 8048dc9:	83 c4 28             	add    $0x28,%esp
 8048dcc:	5b                   	pop    %ebx
 8048dcd:	c3                   	ret    

08048dce <phase_6>:
 8048dce:	57                   	push   %edi
 8048dcf:	56                   	push   %esi
 8048dd0:	53                   	push   %ebx
 8048dd1:	83 ec 40             	sub    $0x40,%esp
 8048dd4:	8d 44 24 28          	lea    0x28(%esp),%eax
 8048dd8:	89 44 24 04          	mov    %eax,0x4(%esp)
 8048ddc:	8b 44 24 50          	mov    0x50(%esp),%eax
 8048de0:	89 04 24             	mov    %eax,(%esp)
 8048de3:	e8 72 04 00 00       	call   804925a <read_six_numbers>
 8048de8:	bf 00 00 00 00       	mov    $0x0,%edi
 8048ded:	8b 44 bc 28          	mov    0x28(%esp,%edi,4),%eax
 8048df1:	83 e8 01             	sub    $0x1,%eax
 8048df4:	83 f8 05             	cmp    $0x5,%eax
 8048df7:	76 05                	jbe    8048dfe <phase_6+0x30>
 8048df9:	e8 29 03 00 00       	call   8049127 <explode_bomb>
 8048dfe:	8d 77 01             	lea    0x1(%edi),%esi
 8048e01:	83 fe 06             	cmp    $0x6,%esi
 8048e04:	74 1d                	je     8048e23 <phase_6+0x55>
 8048e06:	89 f3                	mov    %esi,%ebx
 8048e08:	8b 44 9c 28          	mov    0x28(%esp,%ebx,4),%eax
 8048e0c:	39 44 b4 24          	cmp    %eax,0x24(%esp,%esi,4)
 8048e10:	75 05                	jne    8048e17 <phase_6+0x49>
 8048e12:	e8 10 03 00 00       	call   8049127 <explode_bomb>
 8048e17:	83 c3 01             	add    $0x1,%ebx
 8048e1a:	89 f7                	mov    %esi,%edi
 8048e1c:	83 fb 05             	cmp    $0x5,%ebx
 8048e1f:	7e e7                	jle    8048e08 <phase_6+0x3a>
 8048e21:	eb ca                	jmp    8048ded <phase_6+0x1f>
 8048e23:	8d 44 24 28          	lea    0x28(%esp),%eax
 8048e27:	8d 5c 24 40          	lea    0x40(%esp),%ebx
 8048e2b:	b9 07 00 00 00       	mov    $0x7,%ecx
 8048e30:	89 ca                	mov    %ecx,%edx
 8048e32:	2b 10                	sub    (%eax),%edx
 8048e34:	89 10                	mov    %edx,(%eax)
 8048e36:	83 c0 04             	add    $0x4,%eax
 8048e39:	39 d8                	cmp    %ebx,%eax
 8048e3b:	75 f3                	jne    8048e30 <phase_6+0x62>
 8048e3d:	bb 00 00 00 00       	mov    $0x0,%ebx
 8048e42:	eb 16                	jmp    8048e5a <phase_6+0x8c>
 8048e44:	8b 52 08             	mov    0x8(%edx),%edx
 8048e47:	83 c0 01             	add    $0x1,%eax
 8048e4a:	39 c8                	cmp    %ecx,%eax
 8048e4c:	75 f6                	jne    8048e44 <phase_6+0x76>
 8048e4e:	89 54 b4 10          	mov    %edx,0x10(%esp,%esi,4)
 8048e52:	83 c3 01             	add    $0x1,%ebx
 8048e55:	83 fb 06             	cmp    $0x6,%ebx
 8048e58:	74 17                	je     8048e71 <phase_6+0xa3>
 8048e5a:	89 de                	mov    %ebx,%esi
 8048e5c:	8b 4c 9c 28          	mov    0x28(%esp,%ebx,4),%ecx
 8048e60:	b8 01 00 00 00       	mov    $0x1,%eax
 8048e65:	ba 3c b2 04 08       	mov    $0x804b23c,%edx
 8048e6a:	83 f9 01             	cmp    $0x1,%ecx
 8048e6d:	7f d5                	jg     8048e44 <phase_6+0x76>
 8048e6f:	eb dd                	jmp    8048e4e <phase_6+0x80>
 8048e71:	8b 5c 24 10          	mov    0x10(%esp),%ebx
 8048e75:	8b 44 24 14          	mov    0x14(%esp),%eax
 8048e79:	89 43 08             	mov    %eax,0x8(%ebx)
 8048e7c:	8b 54 24 18          	mov    0x18(%esp),%edx
 8048e80:	89 50 08             	mov    %edx,0x8(%eax)
 8048e83:	8b 44 24 1c          	mov    0x1c(%esp),%eax
 8048e87:	89 42 08             	mov    %eax,0x8(%edx)
 8048e8a:	8b 54 24 20          	mov    0x20(%esp),%edx
 8048e8e:	89 50 08             	mov    %edx,0x8(%eax)
 8048e91:	8b 44 24 24          	mov    0x24(%esp),%eax
 8048e95:	89 42 08             	mov    %eax,0x8(%edx)
 8048e98:	c7 40 08 00 00 00 00 	movl   $0x0,0x8(%eax)
 8048e9f:	be 05 00 00 00       	mov    $0x5,%esi
 8048ea4:	8b 43 08             	mov    0x8(%ebx),%eax
 8048ea7:	8b 10                	mov    (%eax),%edx
 8048ea9:	39 13                	cmp    %edx,(%ebx)
 8048eab:	7d 05                	jge    8048eb2 <phase_6+0xe4>
 8048ead:	e8 75 02 00 00       	call   8049127 <explode_bomb>
 8048eb2:	8b 5b 08             	mov    0x8(%ebx),%ebx
 8048eb5:	83 ee 01             	sub    $0x1,%esi
 8048eb8:	75 ea                	jne    8048ea4 <phase_6+0xd6>
 8048eba:	83 c4 40             	add    $0x40,%esp
 8048ebd:	5b                   	pop    %ebx
 8048ebe:	5e                   	pop    %esi
 8048ebf:	5f                   	pop    %edi
 8048ec0:	c3                   	ret    

08048ec1 <fun7>:
 8048ec1:	53                   	push   %ebx
 8048ec2:	83 ec 18             	sub    $0x18,%esp
 8048ec5:	8b 54 24 20          	mov    0x20(%esp),%edx
 8048ec9:	8b 4c 24 24          	mov    0x24(%esp),%ecx
 8048ecd:	85 d2                	test   %edx,%edx
 8048ecf:	74 37                	je     8048f08 <fun7+0x47>
 8048ed1:	8b 1a                	mov    (%edx),%ebx
 8048ed3:	39 cb                	cmp    %ecx,%ebx
 8048ed5:	7e 13                	jle    8048eea <fun7+0x29>
 8048ed7:	89 4c 24 04          	mov    %ecx,0x4(%esp)
 8048edb:	8b 42 04             	mov    0x4(%edx),%eax
 8048ede:	89 04 24             	mov    %eax,(%esp)
 8048ee1:	e8 db ff ff ff       	call   8048ec1 <fun7>
 8048ee6:	01 c0                	add    %eax,%eax
 8048ee8:	eb 23                	jmp    8048f0d <fun7+0x4c>
 8048eea:	b8 00 00 00 00       	mov    $0x0,%eax
 8048eef:	39 cb                	cmp    %ecx,%ebx
 8048ef1:	74 1a                	je     8048f0d <fun7+0x4c>
 8048ef3:	89 4c 24 04          	mov    %ecx,0x4(%esp)
 8048ef7:	8b 42 08             	mov    0x8(%edx),%eax
 8048efa:	89 04 24             	mov    %eax,(%esp)
 8048efd:	e8 bf ff ff ff       	call   8048ec1 <fun7>
 8048f02:	8d 44 00 01          	lea    0x1(%eax,%eax,1),%eax
 8048f06:	eb 05                	jmp    8048f0d <fun7+0x4c>
 8048f08:	b8 ff ff ff ff       	mov    $0xffffffff,%eax
 8048f0d:	83 c4 18             	add    $0x18,%esp
 8048f10:	5b                   	pop    %ebx
 8048f11:	c3                   	ret    

08048f12 <secret_phase>:
 8048f12:	53                   	push   %ebx
 8048f13:	83 ec 18             	sub    $0x18,%esp
 8048f16:	e8 33 02 00 00       	call   804914e <read_line>
 8048f1b:	c7 44 24 08 0a 00 00 	movl   $0xa,0x8(%esp)
 8048f22:	00 
 8048f23:	c7 44 24 04 00 00 00 	movl   $0x0,0x4(%esp)
 8048f2a:	00 
 8048f2b:	89 04 24             	mov    %eax,(%esp)
 8048f2e:	e8 bd f9 ff ff       	call   80488f0 <strtol@plt>
 8048f33:	89 c3                	mov    %eax,%ebx
 8048f35:	8d 40 ff             	lea    -0x1(%eax),%eax
 8048f38:	3d e8 03 00 00       	cmp    $0x3e8,%eax
 8048f3d:	76 05                	jbe    8048f44 <secret_phase+0x32>
 8048f3f:	e8 e3 01 00 00       	call   8049127 <explode_bomb>
 8048f44:	89 5c 24 04          	mov    %ebx,0x4(%esp)
 8048f48:	c7 04 24 88 b1 04 08 	movl   $0x804b188,(%esp)
 8048f4f:	e8 6d ff ff ff       	call   8048ec1 <fun7>
 8048f54:	83 f8 01             	cmp    $0x1,%eax
 8048f57:	74 05                	je     8048f5e <secret_phase+0x4c>
 8048f59:	e8 c9 01 00 00       	call   8049127 <explode_bomb>
 8048f5e:	c7 04 24 f8 a0 04 08 	movl   $0x804a0f8,(%esp)
 8048f65:	e8 c6 f8 ff ff       	call   8048830 <puts@plt>
 8048f6a:	e8 3b 03 00 00       	call   80492aa <phase_defused>
 8048f6f:	83 c4 18             	add    $0x18,%esp
 8048f72:	5b                   	pop    %ebx
 8048f73:	c3                   	ret    
 8048f74:	90                   	nop
 8048f75:	90                   	nop
 8048f76:	90                   	nop
 8048f77:	90                   	nop
 8048f78:	90                   	nop
 8048f79:	90                   	nop
 8048f7a:	90                   	nop
 8048f7b:	90                   	nop
 8048f7c:	90                   	nop
 8048f7d:	90                   	nop
 8048f7e:	90                   	nop
 8048f7f:	90                   	nop

08048f80 <sig_handler>:
 8048f80:	83 ec 1c             	sub    $0x1c,%esp
 8048f83:	c7 04 24 58 a1 04 08 	movl   $0x804a158,(%esp)
 8048f8a:	e8 a1 f8 ff ff       	call   8048830 <puts@plt>
 8048f8f:	c7 04 24 03 00 00 00 	movl   $0x3,(%esp)
 8048f96:	e8 45 f8 ff ff       	call   80487e0 <sleep@plt>
 8048f9b:	c7 04 24 1a a2 04 08 	movl   $0x804a21a,(%esp)
 8048fa2:	e8 e9 f7 ff ff       	call   8048790 <printf@plt>
 8048fa7:	a1 c0 b4 04 08       	mov    0x804b4c0,%eax
 8048fac:	89 04 24             	mov    %eax,(%esp)
 8048faf:	e8 ec f7 ff ff       	call   80487a0 <fflush@plt>
 8048fb4:	c7 04 24 01 00 00 00 	movl   $0x1,(%esp)
 8048fbb:	e8 20 f8 ff ff       	call   80487e0 <sleep@plt>
 8048fc0:	c7 04 24 22 a2 04 08 	movl   $0x804a222,(%esp)
 8048fc7:	e8 64 f8 ff ff       	call   8048830 <puts@plt>
 8048fcc:	c7 04 24 10 00 00 00 	movl   $0x10,(%esp)
 8048fd3:	e8 78 f8 ff ff       	call   8048850 <exit@plt>

08048fd8 <invalid_phase>:
 8048fd8:	83 ec 1c             	sub    $0x1c,%esp
 8048fdb:	8b 44 24 20          	mov    0x20(%esp),%eax
 8048fdf:	89 44 24 04          	mov    %eax,0x4(%esp)
 8048fe3:	c7 04 24 2a a2 04 08 	movl   $0x804a22a,(%esp)
 8048fea:	e8 a1 f7 ff ff       	call   8048790 <printf@plt>
 8048fef:	c7 04 24 08 00 00 00 	movl   $0x8,(%esp)
 8048ff6:	e8 55 f8 ff ff       	call   8048850 <exit@plt>

08048ffb <string_length>:
 8048ffb:	8b 54 24 04          	mov    0x4(%esp),%edx
 8048fff:	80 3a 00             	cmpb   $0x0,(%edx)
 8049002:	74 10                	je     8049014 <string_length+0x19>
 8049004:	b8 00 00 00 00       	mov    $0x0,%eax
 8049009:	83 c0 01             	add    $0x1,%eax
 804900c:	80 3c 02 00          	cmpb   $0x0,(%edx,%eax,1)
 8049010:	75 f7                	jne    8049009 <string_length+0xe>
 8049012:	f3 c3                	repz ret 
 8049014:	b8 00 00 00 00       	mov    $0x0,%eax
 8049019:	c3                   	ret    

0804901a <strings_not_equal>:
 804901a:	57                   	push   %edi
 804901b:	56                   	push   %esi
 804901c:	53                   	push   %ebx
 804901d:	83 ec 04             	sub    $0x4,%esp
 8049020:	8b 5c 24 14          	mov    0x14(%esp),%ebx
 8049024:	8b 74 24 18          	mov    0x18(%esp),%esi
 8049028:	89 1c 24             	mov    %ebx,(%esp)
 804902b:	e8 cb ff ff ff       	call   8048ffb <string_length>
 8049030:	89 c7                	mov    %eax,%edi
 8049032:	89 34 24             	mov    %esi,(%esp)
 8049035:	e8 c1 ff ff ff       	call   8048ffb <string_length>
 804903a:	ba 01 00 00 00       	mov    $0x1,%edx
 804903f:	39 c7                	cmp    %eax,%edi
 8049041:	75 3c                	jne    804907f <strings_not_equal+0x65>
 8049043:	0f b6 03             	movzbl (%ebx),%eax
 8049046:	84 c0                	test   %al,%al
 8049048:	74 22                	je     804906c <strings_not_equal+0x52>
 804904a:	3a 06                	cmp    (%esi),%al
 804904c:	75 25                	jne    8049073 <strings_not_equal+0x59>
 804904e:	89 f2                	mov    %esi,%edx
 8049050:	89 d8                	mov    %ebx,%eax
 8049052:	eb 04                	jmp    8049058 <strings_not_equal+0x3e>
 8049054:	3a 0a                	cmp    (%edx),%cl
 8049056:	75 22                	jne    804907a <strings_not_equal+0x60>
 8049058:	83 c0 01             	add    $0x1,%eax
 804905b:	83 c2 01             	add    $0x1,%edx
 804905e:	0f b6 08             	movzbl (%eax),%ecx
 8049061:	84 c9                	test   %cl,%cl
 8049063:	75 ef                	jne    8049054 <strings_not_equal+0x3a>
 8049065:	ba 00 00 00 00       	mov    $0x0,%edx
 804906a:	eb 13                	jmp    804907f <strings_not_equal+0x65>
 804906c:	ba 00 00 00 00       	mov    $0x0,%edx
 8049071:	eb 0c                	jmp    804907f <strings_not_equal+0x65>
 8049073:	ba 01 00 00 00       	mov    $0x1,%edx
 8049078:	eb 05                	jmp    804907f <strings_not_equal+0x65>
 804907a:	ba 01 00 00 00       	mov    $0x1,%edx
 804907f:	89 d0                	mov    %edx,%eax
 8049081:	83 c4 04             	add    $0x4,%esp
 8049084:	5b                   	pop    %ebx
 8049085:	5e                   	pop    %esi
 8049086:	5f                   	pop    %edi
 8049087:	c3                   	ret    

08049088 <initialize_bomb>:
 8049088:	83 ec 1c             	sub    $0x1c,%esp
 804908b:	c7 44 24 04 80 8f 04 	movl   $0x8048f80,0x4(%esp)
 8049092:	08 
 8049093:	c7 04 24 02 00 00 00 	movl   $0x2,(%esp)
 804909a:	e8 31 f7 ff ff       	call   80487d0 <signal@plt>
 804909f:	83 c4 1c             	add    $0x1c,%esp
 80490a2:	c3                   	ret    

080490a3 <initialize_bomb_solve>:
 80490a3:	f3 c3                	repz ret 

080490a5 <blank_line>:
 80490a5:	56                   	push   %esi
 80490a6:	53                   	push   %ebx
 80490a7:	83 ec 04             	sub    $0x4,%esp
 80490aa:	8b 5c 24 10          	mov    0x10(%esp),%ebx
 80490ae:	eb 16                	jmp    80490c6 <blank_line+0x21>
 80490b0:	e8 6b f8 ff ff       	call   8048920 <__ctype_b_loc@plt>
 80490b5:	83 c3 01             	add    $0x1,%ebx
 80490b8:	89 f2                	mov    %esi,%edx
 80490ba:	0f be f2             	movsbl %dl,%esi
 80490bd:	8b 00                	mov    (%eax),%eax
 80490bf:	f6 44 70 01 20       	testb  $0x20,0x1(%eax,%esi,2)
 80490c4:	74 10                	je     80490d6 <blank_line+0x31>
 80490c6:	0f b6 33             	movzbl (%ebx),%esi
 80490c9:	89 f0                	mov    %esi,%eax
 80490cb:	84 c0                	test   %al,%al
 80490cd:	75 e1                	jne    80490b0 <blank_line+0xb>
 80490cf:	b8 01 00 00 00       	mov    $0x1,%eax
 80490d4:	eb 05                	jmp    80490db <blank_line+0x36>
 80490d6:	b8 00 00 00 00       	mov    $0x0,%eax
 80490db:	83 c4 04             	add    $0x4,%esp
 80490de:	5b                   	pop    %ebx
 80490df:	5e                   	pop    %esi
 80490e0:	c3                   	ret    

080490e1 <skip>:
 80490e1:	53                   	push   %ebx
 80490e2:	83 ec 18             	sub    $0x18,%esp
 80490e5:	a1 cc b4 04 08       	mov    0x804b4cc,%eax
 80490ea:	89 44 24 08          	mov    %eax,0x8(%esp)
 80490ee:	c7 44 24 04 50 00 00 	movl   $0x50,0x4(%esp)
 80490f5:	00 
 80490f6:	a1 c8 b4 04 08       	mov    0x804b4c8,%eax
 80490fb:	8d 04 80             	lea    (%eax,%eax,4),%eax
 80490fe:	c1 e0 04             	shl    $0x4,%eax
 8049101:	05 e0 b4 04 08       	add    $0x804b4e0,%eax
 8049106:	89 04 24             	mov    %eax,(%esp)
 8049109:	e8 b2 f6 ff ff       	call   80487c0 <fgets@plt>
 804910e:	89 c3                	mov    %eax,%ebx
 8049110:	85 c0                	test   %eax,%eax
 8049112:	74 0c                	je     8049120 <skip+0x3f>
 8049114:	89 04 24             	mov    %eax,(%esp)
 8049117:	e8 89 ff ff ff       	call   80490a5 <blank_line>
 804911c:	85 c0                	test   %eax,%eax
 804911e:	75 c5                	jne    80490e5 <skip+0x4>
 8049120:	89 d8                	mov    %ebx,%eax
 8049122:	83 c4 18             	add    $0x18,%esp
 8049125:	5b                   	pop    %ebx
 8049126:	c3                   	ret    

08049127 <explode_bomb>:
 8049127:	83 ec 1c             	sub    $0x1c,%esp
 804912a:	c7 04 24 3b a2 04 08 	movl   $0x804a23b,(%esp)
 8049131:	e8 fa f6 ff ff       	call   8048830 <puts@plt>
 8049136:	c7 04 24 44 a2 04 08 	movl   $0x804a244,(%esp)
 804913d:	e8 ee f6 ff ff       	call   8048830 <puts@plt>
 8049142:	c7 04 24 08 00 00 00 	movl   $0x8,(%esp)
 8049149:	e8 02 f7 ff ff       	call   8048850 <exit@plt>

0804914e <read_line>:
 804914e:	83 ec 1c             	sub    $0x1c,%esp
 8049151:	89 5c 24 10          	mov    %ebx,0x10(%esp)
 8049155:	89 74 24 14          	mov    %esi,0x14(%esp)
 8049159:	89 7c 24 18          	mov    %edi,0x18(%esp)
 804915d:	e8 7f ff ff ff       	call   80490e1 <skip>
 8049162:	85 c0                	test   %eax,%eax
 8049164:	75 6c                	jne    80491d2 <read_line+0x84>
 8049166:	a1 a4 b4 04 08       	mov    0x804b4a4,%eax
 804916b:	39 05 cc b4 04 08    	cmp    %eax,0x804b4cc
 8049171:	75 18                	jne    804918b <read_line+0x3d>
 8049173:	c7 04 24 5b a2 04 08 	movl   $0x804a25b,(%esp)
 804917a:	e8 b1 f6 ff ff       	call   8048830 <puts@plt>
 804917f:	c7 04 24 08 00 00 00 	movl   $0x8,(%esp)
 8049186:	e8 c5 f6 ff ff       	call   8048850 <exit@plt>
 804918b:	c7 04 24 79 a2 04 08 	movl   $0x804a279,(%esp)
 8049192:	e8 89 f6 ff ff       	call   8048820 <getenv@plt>
 8049197:	85 c0                	test   %eax,%eax
 8049199:	74 0c                	je     80491a7 <read_line+0x59>
 804919b:	c7 04 24 00 00 00 00 	movl   $0x0,(%esp)
 80491a2:	e8 a9 f6 ff ff       	call   8048850 <exit@plt>
 80491a7:	a1 a4 b4 04 08       	mov    0x804b4a4,%eax
 80491ac:	a3 cc b4 04 08       	mov    %eax,0x804b4cc
 80491b1:	e8 2b ff ff ff       	call   80490e1 <skip>
 80491b6:	85 c0                	test   %eax,%eax
 80491b8:	75 18                	jne    80491d2 <read_line+0x84>
 80491ba:	c7 04 24 5b a2 04 08 	movl   $0x804a25b,(%esp)
 80491c1:	e8 6a f6 ff ff       	call   8048830 <puts@plt>
 80491c6:	c7 04 24 00 00 00 00 	movl   $0x0,(%esp)
 80491cd:	e8 7e f6 ff ff       	call   8048850 <exit@plt>
 80491d2:	8b 15 c8 b4 04 08    	mov    0x804b4c8,%edx
 80491d8:	8d 1c 92             	lea    (%edx,%edx,4),%ebx
 80491db:	c1 e3 04             	shl    $0x4,%ebx
 80491de:	81 c3 e0 b4 04 08    	add    $0x804b4e0,%ebx
 80491e4:	89 df                	mov    %ebx,%edi
 80491e6:	b8 00 00 00 00       	mov    $0x0,%eax
 80491eb:	b9 ff ff ff ff       	mov    $0xffffffff,%ecx
 80491f0:	f2 ae                	repnz scas %es:(%edi),%al
 80491f2:	f7 d1                	not    %ecx
 80491f4:	83 e9 01             	sub    $0x1,%ecx
 80491f7:	83 f9 4e             	cmp    $0x4e,%ecx
 80491fa:	7e 35                	jle    8049231 <read_line+0xe3>
 80491fc:	c7 04 24 84 a2 04 08 	movl   $0x804a284,(%esp)
 8049203:	e8 28 f6 ff ff       	call   8048830 <puts@plt>
 8049208:	a1 c8 b4 04 08       	mov    0x804b4c8,%eax
 804920d:	8d 50 01             	lea    0x1(%eax),%edx
 8049210:	89 15 c8 b4 04 08    	mov    %edx,0x804b4c8
 8049216:	6b c0 50             	imul   $0x50,%eax,%eax
 8049219:	05 e0 b4 04 08       	add    $0x804b4e0,%eax
 804921e:	be 9f a2 04 08       	mov    $0x804a29f,%esi
 8049223:	b9 04 00 00 00       	mov    $0x4,%ecx
 8049228:	89 c7                	mov    %eax,%edi
 804922a:	f3 a5                	rep movsl %ds:(%esi),%es:(%edi)
 804922c:	e8 f6 fe ff ff       	call   8049127 <explode_bomb>
 8049231:	8d 04 92             	lea    (%edx,%edx,4),%eax
 8049234:	c1 e0 04             	shl    $0x4,%eax
 8049237:	c6 84 01 df b4 04 08 	movb   $0x0,0x804b4df(%ecx,%eax,1)
 804923e:	00 
 804923f:	83 c2 01             	add    $0x1,%edx
 8049242:	89 15 c8 b4 04 08    	mov    %edx,0x804b4c8
 8049248:	89 d8                	mov    %ebx,%eax
 804924a:	8b 5c 24 10          	mov    0x10(%esp),%ebx
 804924e:	8b 74 24 14          	mov    0x14(%esp),%esi
 8049252:	8b 7c 24 18          	mov    0x18(%esp),%edi
 8049256:	83 c4 1c             	add    $0x1c,%esp
 8049259:	c3                   	ret    

0804925a <read_six_numbers>:
 804925a:	83 ec 2c             	sub    $0x2c,%esp
 804925d:	8b 44 24 34          	mov    0x34(%esp),%eax
 8049261:	8d 50 14             	lea    0x14(%eax),%edx
 8049264:	89 54 24 1c          	mov    %edx,0x1c(%esp)
 8049268:	8d 50 10             	lea    0x10(%eax),%edx
 804926b:	89 54 24 18          	mov    %edx,0x18(%esp)
 804926f:	8d 50 0c             	lea    0xc(%eax),%edx
 8049272:	89 54 24 14          	mov    %edx,0x14(%esp)
 8049276:	8d 50 08             	lea    0x8(%eax),%edx
 8049279:	89 54 24 10          	mov    %edx,0x10(%esp)
 804927d:	8d 50 04             	lea    0x4(%eax),%edx
 8049280:	89 54 24 0c          	mov    %edx,0xc(%esp)
 8049284:	89 44 24 08          	mov    %eax,0x8(%esp)
 8049288:	c7 44 24 04 af a2 04 	movl   $0x804a2af,0x4(%esp)
 804928f:	08 
 8049290:	8b 44 24 30          	mov    0x30(%esp),%eax
 8049294:	89 04 24             	mov    %eax,(%esp)
 8049297:	e8 f4 f5 ff ff       	call   8048890 <__isoc99_sscanf@plt>
 804929c:	83 f8 05             	cmp    $0x5,%eax
 804929f:	7f 05                	jg     80492a6 <read_six_numbers+0x4c>
 80492a1:	e8 81 fe ff ff       	call   8049127 <explode_bomb>
 80492a6:	83 c4 2c             	add    $0x2c,%esp
 80492a9:	c3                   	ret    

080492aa <phase_defused>:
 80492aa:	83 3d c8 b4 04 08 06 	cmpl   $0x6,0x804b4c8
 80492b1:	75 7e                	jne    8049331 <phase_defused+0x87>
 80492b3:	81 ec 8c 00 00 00    	sub    $0x8c,%esp
 80492b9:	8d 44 24 30          	lea    0x30(%esp),%eax
 80492bd:	89 44 24 10          	mov    %eax,0x10(%esp)
 80492c1:	8d 44 24 28          	lea    0x28(%esp),%eax
 80492c5:	89 44 24 0c          	mov    %eax,0xc(%esp)
 80492c9:	8d 44 24 2c          	lea    0x2c(%esp),%eax
 80492cd:	89 44 24 08          	mov    %eax,0x8(%esp)
 80492d1:	c7 44 24 04 c1 a2 04 	movl   $0x804a2c1,0x4(%esp)
 80492d8:	08 
 80492d9:	c7 04 24 d0 b5 04 08 	movl   $0x804b5d0,(%esp)
 80492e0:	e8 ab f5 ff ff       	call   8048890 <__isoc99_sscanf@plt>
 80492e5:	83 f8 03             	cmp    $0x3,%eax
 80492e8:	75 35                	jne    804931f <phase_defused+0x75>
 80492ea:	c7 44 24 04 ca a2 04 	movl   $0x804a2ca,0x4(%esp)
 80492f1:	08 
 80492f2:	8d 44 24 30          	lea    0x30(%esp),%eax
 80492f6:	89 04 24             	mov    %eax,(%esp)
 80492f9:	e8 1c fd ff ff       	call   804901a <strings_not_equal>
 80492fe:	85 c0                	test   %eax,%eax
 8049300:	75 1d                	jne    804931f <phase_defused+0x75>
 8049302:	c7 04 24 90 a1 04 08 	movl   $0x804a190,(%esp)
 8049309:	e8 22 f5 ff ff       	call   8048830 <puts@plt>
 804930e:	c7 04 24 b8 a1 04 08 	movl   $0x804a1b8,(%esp)
 8049315:	e8 16 f5 ff ff       	call   8048830 <puts@plt>
 804931a:	e8 f3 fb ff ff       	call   8048f12 <secret_phase>
 804931f:	c7 04 24 f0 a1 04 08 	movl   $0x804a1f0,(%esp)
 8049326:	e8 05 f5 ff ff       	call   8048830 <puts@plt>
 804932b:	81 c4 8c 00 00 00    	add    $0x8c,%esp
 8049331:	f3 c3                	repz ret 
 8049333:	90                   	nop
 8049334:	90                   	nop
 8049335:	90                   	nop
 8049336:	90                   	nop
 8049337:	90                   	nop
 8049338:	90                   	nop
 8049339:	90                   	nop
 804933a:	90                   	nop
 804933b:	90                   	nop
 804933c:	90                   	nop
 804933d:	90                   	nop
 804933e:	90                   	nop
 804933f:	90                   	nop

08049340 <rio_readlineb>:
 8049340:	55                   	push   %ebp
 8049341:	57                   	push   %edi
 8049342:	56                   	push   %esi
 8049343:	53                   	push   %ebx
 8049344:	83 ec 3c             	sub    $0x3c,%esp
 8049347:	83 f9 01             	cmp    $0x1,%ecx
 804934a:	0f 86 cd 00 00 00    	jbe    804941d <rio_readlineb+0xdd>
 8049350:	89 c3                	mov    %eax,%ebx
 8049352:	89 4c 24 1c          	mov    %ecx,0x1c(%esp)
 8049356:	89 54 24 10          	mov    %edx,0x10(%esp)
 804935a:	bd 01 00 00 00       	mov    $0x1,%ebp
 804935f:	8d 78 0c             	lea    0xc(%eax),%edi
 8049362:	eb 38                	jmp    804939c <rio_readlineb+0x5c>
 8049364:	c7 44 24 08 00 20 00 	movl   $0x2000,0x8(%esp)
 804936b:	00 
 804936c:	89 7c 24 04          	mov    %edi,0x4(%esp)
 8049370:	8b 03                	mov    (%ebx),%eax
 8049372:	89 04 24             	mov    %eax,(%esp)
 8049375:	e8 06 f4 ff ff       	call   8048780 <read@plt>
 804937a:	89 43 04             	mov    %eax,0x4(%ebx)
 804937d:	85 c0                	test   %eax,%eax
 804937f:	79 14                	jns    8049395 <rio_readlineb+0x55>
 8049381:	e8 2a f5 ff ff       	call   80488b0 <__errno_location@plt>
 8049386:	83 38 04             	cmpl   $0x4,(%eax)
 8049389:	74 11                	je     804939c <rio_readlineb+0x5c>
 804938b:	90                   	nop
 804938c:	8d 74 26 00          	lea    0x0(%esi,%eiz,1),%esi
 8049390:	e9 9a 00 00 00       	jmp    804942f <rio_readlineb+0xef>
 8049395:	85 c0                	test   %eax,%eax
 8049397:	74 6d                	je     8049406 <rio_readlineb+0xc6>
 8049399:	89 7b 08             	mov    %edi,0x8(%ebx)
 804939c:	8b 73 04             	mov    0x4(%ebx),%esi
 804939f:	85 f6                	test   %esi,%esi
 80493a1:	7e c1                	jle    8049364 <rio_readlineb+0x24>
 80493a3:	85 f6                	test   %esi,%esi
 80493a5:	0f 95 c0             	setne  %al
 80493a8:	0f b6 c0             	movzbl %al,%eax
 80493ab:	89 44 24 14          	mov    %eax,0x14(%esp)
 80493af:	8b 53 08             	mov    0x8(%ebx),%edx
 80493b2:	89 54 24 18          	mov    %edx,0x18(%esp)
 80493b6:	89 44 24 08          	mov    %eax,0x8(%esp)
 80493ba:	89 54 24 04          	mov    %edx,0x4(%esp)
 80493be:	8d 44 24 2f          	lea    0x2f(%esp),%eax
 80493c2:	89 04 24             	mov    %eax,(%esp)
 80493c5:	e8 e6 f3 ff ff       	call   80487b0 <memcpy@plt>
 80493ca:	8b 44 24 18          	mov    0x18(%esp),%eax
 80493ce:	03 44 24 14          	add    0x14(%esp),%eax
 80493d2:	89 43 08             	mov    %eax,0x8(%ebx)
 80493d5:	2b 74 24 14          	sub    0x14(%esp),%esi
 80493d9:	89 73 04             	mov    %esi,0x4(%ebx)
 80493dc:	83 7c 24 14 01       	cmpl   $0x1,0x14(%esp)
 80493e1:	75 18                	jne    80493fb <rio_readlineb+0xbb>
 80493e3:	0f b6 44 24 2f       	movzbl 0x2f(%esp),%eax
 80493e8:	8b 54 24 10          	mov    0x10(%esp),%edx
 80493ec:	88 02                	mov    %al,(%edx)
 80493ee:	83 c2 01             	add    $0x1,%edx
 80493f1:	89 54 24 10          	mov    %edx,0x10(%esp)
 80493f5:	3c 0a                	cmp    $0xa,%al
 80493f7:	75 19                	jne    8049412 <rio_readlineb+0xd2>
 80493f9:	eb 2b                	jmp    8049426 <rio_readlineb+0xe6>
 80493fb:	83 7c 24 14 00       	cmpl   $0x0,0x14(%esp)
 8049400:	75 34                	jne    8049436 <rio_readlineb+0xf6>
 8049402:	89 e8                	mov    %ebp,%eax
 8049404:	eb 02                	jmp    8049408 <rio_readlineb+0xc8>
 8049406:	89 e8                	mov    %ebp,%eax
 8049408:	83 f8 01             	cmp    $0x1,%eax
 804940b:	75 19                	jne    8049426 <rio_readlineb+0xe6>
 804940d:	8d 76 00             	lea    0x0(%esi),%esi
 8049410:	eb 2b                	jmp    804943d <rio_readlineb+0xfd>
 8049412:	83 c5 01             	add    $0x1,%ebp
 8049415:	3b 6c 24 1c          	cmp    0x1c(%esp),%ebp
 8049419:	75 81                	jne    804939c <rio_readlineb+0x5c>
 804941b:	eb 09                	jmp    8049426 <rio_readlineb+0xe6>
 804941d:	89 54 24 10          	mov    %edx,0x10(%esp)
 8049421:	bd 01 00 00 00       	mov    $0x1,%ebp
 8049426:	8b 44 24 10          	mov    0x10(%esp),%eax
 804942a:	c6 00 00             	movb   $0x0,(%eax)
 804942d:	eb 13                	jmp    8049442 <rio_readlineb+0x102>
 804942f:	bd ff ff ff ff       	mov    $0xffffffff,%ebp
 8049434:	eb 0c                	jmp    8049442 <rio_readlineb+0x102>
 8049436:	bd ff ff ff ff       	mov    $0xffffffff,%ebp
 804943b:	eb 05                	jmp    8049442 <rio_readlineb+0x102>
 804943d:	bd 00 00 00 00       	mov    $0x0,%ebp
 8049442:	89 e8                	mov    %ebp,%eax
 8049444:	83 c4 3c             	add    $0x3c,%esp
 8049447:	5b                   	pop    %ebx
 8049448:	5e                   	pop    %esi
 8049449:	5f                   	pop    %edi
 804944a:	5d                   	pop    %ebp
 804944b:	c3                   	ret    

0804944c <sigalrm_handler>:
 804944c:	83 ec 1c             	sub    $0x1c,%esp
 804944f:	c7 44 24 08 00 00 00 	movl   $0x0,0x8(%esp)
 8049456:	00 
 8049457:	c7 44 24 04 30 a3 04 	movl   $0x804a330,0x4(%esp)
 804945e:	08 
 804945f:	a1 a0 b4 04 08       	mov    0x804b4a0,%eax
 8049464:	89 04 24             	mov    %eax,(%esp)
 8049467:	e8 04 f4 ff ff       	call   8048870 <fprintf@plt>
 804946c:	c7 04 24 01 00 00 00 	movl   $0x1,(%esp)
 8049473:	e8 d8 f3 ff ff       	call   8048850 <exit@plt>

08049478 <submitr>:
 8049478:	55                   	push   %ebp
 8049479:	57                   	push   %edi
 804947a:	56                   	push   %esi
 804947b:	53                   	push   %ebx
 804947c:	81 ec 6c a0 00 00    	sub    $0xa06c,%esp
 8049482:	8b 9c 24 94 a0 00 00 	mov    0xa094(%esp),%ebx
 8049489:	c7 84 24 40 20 00 00 	movl   $0x0,0x2040(%esp)
 8049490:	00 00 00 00 
 8049494:	c7 44 24 08 00 00 00 	movl   $0x0,0x8(%esp)
 804949b:	00 
 804949c:	c7 44 24 04 01 00 00 	movl   $0x1,0x4(%esp)
 80494a3:	00 
 80494a4:	c7 04 24 02 00 00 00 	movl   $0x2,(%esp)
 80494ab:	e8 20 f4 ff ff       	call   80488d0 <socket@plt>
 80494b0:	89 c5                	mov    %eax,%ebp
 80494b2:	85 c0                	test   %eax,%eax
 80494b4:	79 55                	jns    804950b <submitr+0x93>
 80494b6:	8b 84 24 98 a0 00 00 	mov    0xa098(%esp),%eax
 80494bd:	c7 00 45 72 72 6f    	movl   $0x6f727245,(%eax)
 80494c3:	c7 40 04 72 3a 20 43 	movl   $0x43203a72,0x4(%eax)
 80494ca:	c7 40 08 6c 69 65 6e 	movl   $0x6e65696c,0x8(%eax)
 80494d1:	c7 40 0c 74 20 75 6e 	movl   $0x6e752074,0xc(%eax)
 80494d8:	c7 40 10 61 62 6c 65 	movl   $0x656c6261,0x10(%eax)
 80494df:	c7 40 14 20 74 6f 20 	movl   $0x206f7420,0x14(%eax)
 80494e6:	c7 40 18 63 72 65 61 	movl   $0x61657263,0x18(%eax)
 80494ed:	c7 40 1c 74 65 20 73 	movl   $0x73206574,0x1c(%eax)
 80494f4:	c7 40 20 6f 63 6b 65 	movl   $0x656b636f,0x20(%eax)
 80494fb:	66 c7 40 24 74 00    	movw   $0x74,0x24(%eax)
 8049501:	b8 ff ff ff ff       	mov    $0xffffffff,%eax
 8049506:	e9 47 07 00 00       	jmp    8049c52 <submitr+0x7da>
 804950b:	8b 84 24 80 a0 00 00 	mov    0xa080(%esp),%eax
 8049512:	89 04 24             	mov    %eax,(%esp)
 8049515:	e8 c6 f3 ff ff       	call   80488e0 <gethostbyname@plt>
 804951a:	85 c0                	test   %eax,%eax
 804951c:	75 6f                	jne    804958d <submitr+0x115>
 804951e:	8b 94 24 98 a0 00 00 	mov    0xa098(%esp),%edx
 8049525:	c7 02 45 72 72 6f    	movl   $0x6f727245,(%edx)
 804952b:	c7 42 04 72 3a 20 44 	movl   $0x44203a72,0x4(%edx)
 8049532:	c7 42 08 4e 53 20 69 	movl   $0x6920534e,0x8(%edx)
 8049539:	c7 42 0c 73 20 75 6e 	movl   $0x6e752073,0xc(%edx)
 8049540:	c7 42 10 61 62 6c 65 	movl   $0x656c6261,0x10(%edx)
 8049547:	c7 42 14 20 74 6f 20 	movl   $0x206f7420,0x14(%edx)
 804954e:	c7 42 18 72 65 73 6f 	movl   $0x6f736572,0x18(%edx)
 8049555:	c7 42 1c 6c 76 65 20 	movl   $0x2065766c,0x1c(%edx)
 804955c:	c7 42 20 73 65 72 76 	movl   $0x76726573,0x20(%edx)
 8049563:	c7 42 24 65 72 20 61 	movl   $0x61207265,0x24(%edx)
 804956a:	c7 42 28 64 64 72 65 	movl   $0x65726464,0x28(%edx)
 8049571:	66 c7 42 2c 73 73    	movw   $0x7373,0x2c(%edx)
 8049577:	c6 42 2e 00          	movb   $0x0,0x2e(%edx)
 804957b:	89 2c 24             	mov    %ebp,(%esp)
 804957e:	e8 8d f3 ff ff       	call   8048910 <close@plt>
 8049583:	b8 ff ff ff ff       	mov    $0xffffffff,%eax
 8049588:	e9 c5 06 00 00       	jmp    8049c52 <submitr+0x7da>
 804958d:	8d b4 24 50 a0 00 00 	lea    0xa050(%esp),%esi
 8049594:	c7 84 24 50 a0 00 00 	movl   $0x0,0xa050(%esp)
 804959b:	00 00 00 00 
 804959f:	c7 84 24 54 a0 00 00 	movl   $0x0,0xa054(%esp)
 80495a6:	00 00 00 00 
 80495aa:	c7 84 24 58 a0 00 00 	movl   $0x0,0xa058(%esp)
 80495b1:	00 00 00 00 
 80495b5:	c7 84 24 5c a0 00 00 	movl   $0x0,0xa05c(%esp)
 80495bc:	00 00 00 00 
 80495c0:	66 c7 84 24 50 a0 00 	movw   $0x2,0xa050(%esp)
 80495c7:	00 02 00 
 80495ca:	8b 50 0c             	mov    0xc(%eax),%edx
 80495cd:	89 54 24 08          	mov    %edx,0x8(%esp)
 80495d1:	8d 94 24 54 a0 00 00 	lea    0xa054(%esp),%edx
 80495d8:	89 54 24 04          	mov    %edx,0x4(%esp)
 80495dc:	8b 40 10             	mov    0x10(%eax),%eax
 80495df:	8b 00                	mov    (%eax),%eax
 80495e1:	89 04 24             	mov    %eax,(%esp)
 80495e4:	e8 17 f2 ff ff       	call   8048800 <bcopy@plt>
 80495e9:	0f b7 84 24 84 a0 00 	movzwl 0xa084(%esp),%eax
 80495f0:	00 
 80495f1:	66 c1 c8 08          	ror    $0x8,%ax
 80495f5:	66 89 84 24 52 a0 00 	mov    %ax,0xa052(%esp)
 80495fc:	00 
 80495fd:	c7 44 24 08 10 00 00 	movl   $0x10,0x8(%esp)
 8049604:	00 
 8049605:	89 74 24 04          	mov    %esi,0x4(%esp)
 8049609:	89 2c 24             	mov    %ebp,(%esp)
 804960c:	e8 ef f2 ff ff       	call   8048900 <connect@plt>
 8049611:	85 c0                	test   %eax,%eax
 8049613:	79 61                	jns    8049676 <submitr+0x1fe>
 8049615:	8b 8c 24 98 a0 00 00 	mov    0xa098(%esp),%ecx
 804961c:	c7 01 45 72 72 6f    	movl   $0x6f727245,(%ecx)
 8049622:	c7 41 04 72 3a 20 55 	movl   $0x55203a72,0x4(%ecx)
 8049629:	c7 41 08 6e 61 62 6c 	movl   $0x6c62616e,0x8(%ecx)
 8049630:	c7 41 0c 65 20 74 6f 	movl   $0x6f742065,0xc(%ecx)
 8049637:	c7 41 10 20 63 6f 6e 	movl   $0x6e6f6320,0x10(%ecx)
 804963e:	c7 41 14 6e 65 63 74 	movl   $0x7463656e,0x14(%ecx)
 8049645:	c7 41 18 20 74 6f 20 	movl   $0x206f7420,0x18(%ecx)
 804964c:	c7 41 1c 74 68 65 20 	movl   $0x20656874,0x1c(%ecx)
 8049653:	c7 41 20 73 65 72 76 	movl   $0x76726573,0x20(%ecx)
 804965a:	66 c7 41 24 65 72    	movw   $0x7265,0x24(%ecx)
 8049660:	c6 41 26 00          	movb   $0x0,0x26(%ecx)
 8049664:	89 2c 24             	mov    %ebp,(%esp)
 8049667:	e8 a4 f2 ff ff       	call   8048910 <close@plt>
 804966c:	b8 ff ff ff ff       	mov    $0xffffffff,%eax
 8049671:	e9 dc 05 00 00       	jmp    8049c52 <submitr+0x7da>
 8049676:	ba ff ff ff ff       	mov    $0xffffffff,%edx
 804967b:	89 df                	mov    %ebx,%edi
 804967d:	b8 00 00 00 00       	mov    $0x0,%eax
 8049682:	89 d1                	mov    %edx,%ecx
 8049684:	f2 ae                	repnz scas %es:(%edi),%al
 8049686:	89 ce                	mov    %ecx,%esi
 8049688:	f7 d6                	not    %esi
 804968a:	8b bc 24 88 a0 00 00 	mov    0xa088(%esp),%edi
 8049691:	89 d1                	mov    %edx,%ecx
 8049693:	f2 ae                	repnz scas %es:(%edi),%al
 8049695:	89 4c 24 28          	mov    %ecx,0x28(%esp)
 8049699:	8b bc 24 8c a0 00 00 	mov    0xa08c(%esp),%edi
 80496a0:	89 d1                	mov    %edx,%ecx
 80496a2:	f2 ae                	repnz scas %es:(%edi),%al
 80496a4:	f7 d1                	not    %ecx
 80496a6:	89 4c 24 2c          	mov    %ecx,0x2c(%esp)
 80496aa:	8b bc 24 90 a0 00 00 	mov    0xa090(%esp),%edi
 80496b1:	89 d1                	mov    %edx,%ecx
 80496b3:	f2 ae                	repnz scas %es:(%edi),%al
 80496b5:	8b 44 24 2c          	mov    0x2c(%esp),%eax
 80496b9:	2b 44 24 28          	sub    0x28(%esp),%eax
 80496bd:	89 c2                	mov    %eax,%edx
 80496bf:	29 ca                	sub    %ecx,%edx
 80496c1:	8d 44 76 fd          	lea    -0x3(%esi,%esi,2),%eax
 80496c5:	8d 44 02 7b          	lea    0x7b(%edx,%eax,1),%eax
 80496c9:	3d 00 20 00 00       	cmp    $0x2000,%eax
 80496ce:	76 7a                	jbe    804974a <submitr+0x2d2>
 80496d0:	8b 84 24 98 a0 00 00 	mov    0xa098(%esp),%eax
 80496d7:	c7 00 45 72 72 6f    	movl   $0x6f727245,(%eax)
 80496dd:	c7 40 04 72 3a 20 52 	movl   $0x52203a72,0x4(%eax)
 80496e4:	c7 40 08 65 73 75 6c 	movl   $0x6c757365,0x8(%eax)
 80496eb:	c7 40 0c 74 20 73 74 	movl   $0x74732074,0xc(%eax)
 80496f2:	c7 40 10 72 69 6e 67 	movl   $0x676e6972,0x10(%eax)
 80496f9:	c7 40 14 20 74 6f 6f 	movl   $0x6f6f7420,0x14(%eax)
 8049700:	c7 40 18 20 6c 61 72 	movl   $0x72616c20,0x18(%eax)
 8049707:	c7 40 1c 67 65 2e 20 	movl   $0x202e6567,0x1c(%eax)
 804970e:	c7 40 20 49 6e 63 72 	movl   $0x72636e49,0x20(%eax)
 8049715:	c7 40 24 65 61 73 65 	movl   $0x65736165,0x24(%eax)
 804971c:	c7 40 28 20 53 55 42 	movl   $0x42555320,0x28(%eax)
 8049723:	c7 40 2c 4d 49 54 52 	movl   $0x5254494d,0x2c(%eax)
 804972a:	c7 40 30 5f 4d 41 58 	movl   $0x58414d5f,0x30(%eax)
 8049731:	c7 40 34 42 55 46 00 	movl   $0x465542,0x34(%eax)
 8049738:	89 2c 24             	mov    %ebp,(%esp)
 804973b:	e8 d0 f1 ff ff       	call   8048910 <close@plt>
 8049740:	b8 ff ff ff ff       	mov    $0xffffffff,%eax
 8049745:	e9 08 05 00 00       	jmp    8049c52 <submitr+0x7da>
 804974a:	8d 94 24 44 40 00 00 	lea    0x4044(%esp),%edx
 8049751:	b9 00 08 00 00       	mov    $0x800,%ecx
 8049756:	b8 00 00 00 00       	mov    $0x0,%eax
 804975b:	89 d7                	mov    %edx,%edi
 804975d:	f3 ab                	rep stos %eax,%es:(%edi)
 804975f:	89 df                	mov    %ebx,%edi
 8049761:	b9 ff ff ff ff       	mov    $0xffffffff,%ecx
 8049766:	f2 ae                	repnz scas %es:(%edi),%al
 8049768:	f7 d1                	not    %ecx
 804976a:	89 cf                	mov    %ecx,%edi
 804976c:	83 ef 01             	sub    $0x1,%edi
 804976f:	0f 84 f3 03 00 00    	je     8049b68 <submitr+0x6f0>
 8049775:	89 d6                	mov    %edx,%esi
 8049777:	0f b6 03             	movzbl (%ebx),%eax
 804977a:	3c 2d                	cmp    $0x2d,%al
 804977c:	74 24                	je     80497a2 <submitr+0x32a>
 804977e:	3c 2a                	cmp    $0x2a,%al
 8049780:	74 20                	je     80497a2 <submitr+0x32a>
 8049782:	3c 2e                	cmp    $0x2e,%al
 8049784:	74 1c                	je     80497a2 <submitr+0x32a>
 8049786:	3c 5f                	cmp    $0x5f,%al
 8049788:	74 18                	je     80497a2 <submitr+0x32a>
 804978a:	8d 50 d0             	lea    -0x30(%eax),%edx
 804978d:	80 fa 09             	cmp    $0x9,%dl
 8049790:	76 10                	jbe    80497a2 <submitr+0x32a>
 8049792:	8d 50 bf             	lea    -0x41(%eax),%edx
 8049795:	80 fa 19             	cmp    $0x19,%dl
 8049798:	76 08                	jbe    80497a2 <submitr+0x32a>
 804979a:	8d 50 9f             	lea    -0x61(%eax),%edx
 804979d:	80 fa 19             	cmp    $0x19,%dl
 80497a0:	77 07                	ja     80497a9 <submitr+0x331>
 80497a2:	88 06                	mov    %al,(%esi)
 80497a4:	83 c6 01             	add    $0x1,%esi
 80497a7:	eb 51                	jmp    80497fa <submitr+0x382>
 80497a9:	3c 20                	cmp    $0x20,%al
 80497ab:	75 08                	jne    80497b5 <submitr+0x33d>
 80497ad:	c6 06 2b             	movb   $0x2b,(%esi)
 80497b0:	83 c6 01             	add    $0x1,%esi
 80497b3:	eb 45                	jmp    80497fa <submitr+0x382>
 80497b5:	8d 50 e0             	lea    -0x20(%eax),%edx
 80497b8:	80 fa 5f             	cmp    $0x5f,%dl
 80497bb:	76 08                	jbe    80497c5 <submitr+0x34d>
 80497bd:	3c 09                	cmp    $0x9,%al
 80497bf:	0f 85 0d 04 00 00    	jne    8049bd2 <submitr+0x75a>
 80497c5:	0f b6 c0             	movzbl %al,%eax
 80497c8:	89 44 24 08          	mov    %eax,0x8(%esp)
 80497cc:	c7 44 24 04 3c a4 04 	movl   $0x804a43c,0x4(%esp)
 80497d3:	08 
 80497d4:	8d 54 24 38          	lea    0x38(%esp),%edx
 80497d8:	89 14 24             	mov    %edx,(%esp)
 80497db:	e8 e0 f0 ff ff       	call   80488c0 <sprintf@plt>
 80497e0:	0f b6 44 24 38       	movzbl 0x38(%esp),%eax
 80497e5:	88 06                	mov    %al,(%esi)
 80497e7:	0f b6 44 24 39       	movzbl 0x39(%esp),%eax
 80497ec:	88 46 01             	mov    %al,0x1(%esi)
 80497ef:	0f b6 44 24 3a       	movzbl 0x3a(%esp),%eax
 80497f4:	88 46 02             	mov    %al,0x2(%esi)
 80497f7:	83 c6 03             	add    $0x3,%esi
 80497fa:	83 c3 01             	add    $0x1,%ebx
 80497fd:	83 ef 01             	sub    $0x1,%edi
 8049800:	0f 85 71 ff ff ff    	jne    8049777 <submitr+0x2ff>
 8049806:	e9 5d 03 00 00       	jmp    8049b68 <submitr+0x6f0>
 804980b:	89 5c 24 08          	mov    %ebx,0x8(%esp)
 804980f:	89 74 24 04          	mov    %esi,0x4(%esp)
 8049813:	89 2c 24             	mov    %ebp,(%esp)
 8049816:	e8 65 f0 ff ff       	call   8048880 <write@plt>
 804981b:	85 c0                	test   %eax,%eax
 804981d:	7f 0f                	jg     804982e <submitr+0x3b6>
 804981f:	e8 8c f0 ff ff       	call   80488b0 <__errno_location@plt>
 8049824:	83 38 04             	cmpl   $0x4,(%eax)
 8049827:	75 0f                	jne    8049838 <submitr+0x3c0>
 8049829:	b8 00 00 00 00       	mov    $0x0,%eax
 804982e:	01 c6                	add    %eax,%esi
 8049830:	29 c3                	sub    %eax,%ebx
 8049832:	75 d7                	jne    804980b <submitr+0x393>
 8049834:	85 ff                	test   %edi,%edi
 8049836:	79 65                	jns    804989d <submitr+0x425>
 8049838:	8b 8c 24 98 a0 00 00 	mov    0xa098(%esp),%ecx
 804983f:	c7 01 45 72 72 6f    	movl   $0x6f727245,(%ecx)
 8049845:	c7 41 04 72 3a 20 43 	movl   $0x43203a72,0x4(%ecx)
 804984c:	c7 41 08 6c 69 65 6e 	movl   $0x6e65696c,0x8(%ecx)
 8049853:	c7 41 0c 74 20 75 6e 	movl   $0x6e752074,0xc(%ecx)
 804985a:	c7 41 10 61 62 6c 65 	movl   $0x656c6261,0x10(%ecx)
 8049861:	c7 41 14 20 74 6f 20 	movl   $0x206f7420,0x14(%ecx)
 8049868:	c7 41 18 77 72 69 74 	movl   $0x74697277,0x18(%ecx)
 804986f:	c7 41 1c 65 20 74 6f 	movl   $0x6f742065,0x1c(%ecx)
 8049876:	c7 41 20 20 74 68 65 	movl   $0x65687420,0x20(%ecx)
 804987d:	c7 41 24 20 73 65 72 	movl   $0x72657320,0x24(%ecx)
 8049884:	c7 41 28 76 65 72 00 	movl   $0x726576,0x28(%ecx)
 804988b:	89 2c 24             	mov    %ebp,(%esp)
 804988e:	e8 7d f0 ff ff       	call   8048910 <close@plt>
 8049893:	b8 ff ff ff ff       	mov    $0xffffffff,%eax
 8049898:	e9 b5 03 00 00       	jmp    8049c52 <submitr+0x7da>
 804989d:	89 ac 24 44 80 00 00 	mov    %ebp,0x8044(%esp)
 80498a4:	c7 84 24 48 80 00 00 	movl   $0x0,0x8048(%esp)
 80498ab:	00 00 00 00 
 80498af:	8d 84 24 50 80 00 00 	lea    0x8050(%esp),%eax
 80498b6:	89 84 24 4c 80 00 00 	mov    %eax,0x804c(%esp)
 80498bd:	b9 00 20 00 00       	mov    $0x2000,%ecx
 80498c2:	8d 94 24 44 60 00 00 	lea    0x6044(%esp),%edx
 80498c9:	8d 84 24 44 80 00 00 	lea    0x8044(%esp),%eax
 80498d0:	e8 6b fa ff ff       	call   8049340 <rio_readlineb>
 80498d5:	85 c0                	test   %eax,%eax
 80498d7:	7f 79                	jg     8049952 <submitr+0x4da>
 80498d9:	8b 84 24 98 a0 00 00 	mov    0xa098(%esp),%eax
 80498e0:	c7 00 45 72 72 6f    	movl   $0x6f727245,(%eax)
 80498e6:	c7 40 04 72 3a 20 43 	movl   $0x43203a72,0x4(%eax)
 80498ed:	c7 40 08 6c 69 65 6e 	movl   $0x6e65696c,0x8(%eax)
 80498f4:	c7 40 0c 74 20 75 6e 	movl   $0x6e752074,0xc(%eax)
 80498fb:	c7 40 10 61 62 6c 65 	movl   $0x656c6261,0x10(%eax)
 8049902:	c7 40 14 20 74 6f 20 	movl   $0x206f7420,0x14(%eax)
 8049909:	c7 40 18 72 65 61 64 	movl   $0x64616572,0x18(%eax)
 8049910:	c7 40 1c 20 66 69 72 	movl   $0x72696620,0x1c(%eax)
 8049917:	c7 40 20 73 74 20 68 	movl   $0x68207473,0x20(%eax)
 804991e:	c7 40 24 65 61 64 65 	movl   $0x65646165,0x24(%eax)
 8049925:	c7 40 28 72 20 66 72 	movl   $0x72662072,0x28(%eax)
 804992c:	c7 40 2c 6f 6d 20 73 	movl   $0x73206d6f,0x2c(%eax)
 8049933:	c7 40 30 65 72 76 65 	movl   $0x65767265,0x30(%eax)
 804993a:	66 c7 40 34 72 00    	movw   $0x72,0x34(%eax)
 8049940:	89 2c 24             	mov    %ebp,(%esp)
 8049943:	e8 c8 ef ff ff       	call   8048910 <close@plt>
 8049948:	b8 ff ff ff ff       	mov    $0xffffffff,%eax
 804994d:	e9 00 03 00 00       	jmp    8049c52 <submitr+0x7da>
 8049952:	8d 44 24 40          	lea    0x40(%esp),%eax
 8049956:	89 44 24 10          	mov    %eax,0x10(%esp)
 804995a:	8d 84 24 40 20 00 00 	lea    0x2040(%esp),%eax
 8049961:	89 44 24 0c          	mov    %eax,0xc(%esp)
 8049965:	8d 84 24 44 20 00 00 	lea    0x2044(%esp),%eax
 804996c:	89 44 24 08          	mov    %eax,0x8(%esp)
 8049970:	c7 44 24 04 43 a4 04 	movl   $0x804a443,0x4(%esp)
 8049977:	08 
 8049978:	8d 84 24 44 60 00 00 	lea    0x6044(%esp),%eax
 804997f:	89 04 24             	mov    %eax,(%esp)
 8049982:	e8 09 ef ff ff       	call   8048890 <__isoc99_sscanf@plt>
 8049987:	8b 84 24 40 20 00 00 	mov    0x2040(%esp),%eax
 804998e:	3d c8 00 00 00       	cmp    $0xc8,%eax
 8049993:	0f 84 c1 00 00 00    	je     8049a5a <submitr+0x5e2>
 8049999:	8d 54 24 40          	lea    0x40(%esp),%edx
 804999d:	89 54 24 0c          	mov    %edx,0xc(%esp)
 80499a1:	89 44 24 08          	mov    %eax,0x8(%esp)
 80499a5:	c7 44 24 04 54 a3 04 	movl   $0x804a354,0x4(%esp)
 80499ac:	08 
 80499ad:	8b 94 24 98 a0 00 00 	mov    0xa098(%esp),%edx
 80499b4:	89 14 24             	mov    %edx,(%esp)
 80499b7:	e8 04 ef ff ff       	call   80488c0 <sprintf@plt>
 80499bc:	89 2c 24             	mov    %ebp,(%esp)
 80499bf:	e8 4c ef ff ff       	call   8048910 <close@plt>
 80499c4:	b8 ff ff ff ff       	mov    $0xffffffff,%eax
 80499c9:	e9 84 02 00 00       	jmp    8049c52 <submitr+0x7da>
 80499ce:	b9 00 20 00 00       	mov    $0x2000,%ecx
 80499d3:	8d 94 24 44 60 00 00 	lea    0x6044(%esp),%edx
 80499da:	8d 84 24 44 80 00 00 	lea    0x8044(%esp),%eax
 80499e1:	e8 5a f9 ff ff       	call   8049340 <rio_readlineb>
 80499e6:	85 c0                	test   %eax,%eax
 80499e8:	7f 70                	jg     8049a5a <submitr+0x5e2>
 80499ea:	8b 8c 24 98 a0 00 00 	mov    0xa098(%esp),%ecx
 80499f1:	c7 01 45 72 72 6f    	movl   $0x6f727245,(%ecx)
 80499f7:	c7 41 04 72 3a 20 43 	movl   $0x43203a72,0x4(%ecx)
 80499fe:	c7 41 08 6c 69 65 6e 	movl   $0x6e65696c,0x8(%ecx)
 8049a05:	c7 41 0c 74 20 75 6e 	movl   $0x6e752074,0xc(%ecx)
 8049a0c:	c7 41 10 61 62 6c 65 	movl   $0x656c6261,0x10(%ecx)
 8049a13:	c7 41 14 20 74 6f 20 	movl   $0x206f7420,0x14(%ecx)
 8049a1a:	c7 41 18 72 65 61 64 	movl   $0x64616572,0x18(%ecx)
 8049a21:	c7 41 1c 20 68 65 61 	movl   $0x61656820,0x1c(%ecx)
 8049a28:	c7 41 20 64 65 72 73 	movl   $0x73726564,0x20(%ecx)
 8049a2f:	c7 41 24 20 66 72 6f 	movl   $0x6f726620,0x24(%ecx)
 8049a36:	c7 41 28 6d 20 73 65 	movl   $0x6573206d,0x28(%ecx)
 8049a3d:	c7 41 2c 72 76 65 72 	movl   $0x72657672,0x2c(%ecx)
 8049a44:	c6 41 30 00          	movb   $0x0,0x30(%ecx)
 8049a48:	89 2c 24             	mov    %ebp,(%esp)
 8049a4b:	e8 c0 ee ff ff       	call   8048910 <close@plt>
 8049a50:	b8 ff ff ff ff       	mov    $0xffffffff,%eax
 8049a55:	e9 f8 01 00 00       	jmp    8049c52 <submitr+0x7da>
 8049a5a:	80 bc 24 44 60 00 00 	cmpb   $0xd,0x6044(%esp)
 8049a61:	0d 
 8049a62:	0f 85 66 ff ff ff    	jne    80499ce <submitr+0x556>
 8049a68:	80 bc 24 45 60 00 00 	cmpb   $0xa,0x6045(%esp)
 8049a6f:	0a 
 8049a70:	0f 85 58 ff ff ff    	jne    80499ce <submitr+0x556>
 8049a76:	80 bc 24 46 60 00 00 	cmpb   $0x0,0x6046(%esp)
 8049a7d:	00 
 8049a7e:	0f 85 4a ff ff ff    	jne    80499ce <submitr+0x556>
 8049a84:	b9 00 20 00 00       	mov    $0x2000,%ecx
 8049a89:	8d 94 24 44 60 00 00 	lea    0x6044(%esp),%edx
 8049a90:	8d 84 24 44 80 00 00 	lea    0x8044(%esp),%eax
 8049a97:	e8 a4 f8 ff ff       	call   8049340 <rio_readlineb>
 8049a9c:	85 c0                	test   %eax,%eax
 8049a9e:	7f 7a                	jg     8049b1a <submitr+0x6a2>
 8049aa0:	8b 84 24 98 a0 00 00 	mov    0xa098(%esp),%eax
 8049aa7:	c7 00 45 72 72 6f    	movl   $0x6f727245,(%eax)
 8049aad:	c7 40 04 72 3a 20 43 	movl   $0x43203a72,0x4(%eax)
 8049ab4:	c7 40 08 6c 69 65 6e 	movl   $0x6e65696c,0x8(%eax)
 8049abb:	c7 40 0c 74 20 75 6e 	movl   $0x6e752074,0xc(%eax)
 8049ac2:	c7 40 10 61 62 6c 65 	movl   $0x656c6261,0x10(%eax)
 8049ac9:	c7 40 14 20 74 6f 20 	movl   $0x206f7420,0x14(%eax)
 8049ad0:	c7 40 18 72 65 61 64 	movl   $0x64616572,0x18(%eax)
 8049ad7:	c7 40 1c 20 73 74 61 	movl   $0x61747320,0x1c(%eax)
 8049ade:	c7 40 20 74 75 73 20 	movl   $0x20737574,0x20(%eax)
 8049ae5:	c7 40 24 6d 65 73 73 	movl   $0x7373656d,0x24(%eax)
 8049aec:	c7 40 28 61 67 65 20 	movl   $0x20656761,0x28(%eax)
 8049af3:	c7 40 2c 66 72 6f 6d 	movl   $0x6d6f7266,0x2c(%eax)
 8049afa:	c7 40 30 20 73 65 72 	movl   $0x72657320,0x30(%eax)
 8049b01:	c7 40 34 76 65 72 00 	movl   $0x726576,0x34(%eax)
 8049b08:	89 2c 24             	mov    %ebp,(%esp)
 8049b0b:	e8 00 ee ff ff       	call   8048910 <close@plt>
 8049b10:	b8 ff ff ff ff       	mov    $0xffffffff,%eax
 8049b15:	e9 38 01 00 00       	jmp    8049c52 <submitr+0x7da>
 8049b1a:	8d 84 24 44 60 00 00 	lea    0x6044(%esp),%eax
 8049b21:	89 44 24 04          	mov    %eax,0x4(%esp)
 8049b25:	8b 94 24 98 a0 00 00 	mov    0xa098(%esp),%edx
 8049b2c:	89 14 24             	mov    %edx,(%esp)
 8049b2f:	e8 dc ec ff ff       	call   8048810 <strcpy@plt>
 8049b34:	89 2c 24             	mov    %ebp,(%esp)
 8049b37:	e8 d4 ed ff ff       	call   8048910 <close@plt>
 8049b3c:	b8 ff ff ff ff       	mov    $0xffffffff,%eax
 8049b41:	8b 8c 24 98 a0 00 00 	mov    0xa098(%esp),%ecx
 8049b48:	80 39 4f             	cmpb   $0x4f,(%ecx)
 8049b4b:	0f 85 01 01 00 00    	jne    8049c52 <submitr+0x7da>
 8049b51:	80 79 01 4b          	cmpb   $0x4b,0x1(%ecx)
 8049b55:	0f 85 f7 00 00 00    	jne    8049c52 <submitr+0x7da>
 8049b5b:	80 79 02 01          	cmpb   $0x1,0x2(%ecx)
 8049b5f:	19 c0                	sbb    %eax,%eax
 8049b61:	f7 d0                	not    %eax
 8049b63:	e9 ea 00 00 00       	jmp    8049c52 <submitr+0x7da>
 8049b68:	8d 84 24 44 40 00 00 	lea    0x4044(%esp),%eax
 8049b6f:	89 44 24 14          	mov    %eax,0x14(%esp)
 8049b73:	8b 84 24 90 a0 00 00 	mov    0xa090(%esp),%eax
 8049b7a:	89 44 24 10          	mov    %eax,0x10(%esp)
 8049b7e:	8b 94 24 8c a0 00 00 	mov    0xa08c(%esp),%edx
 8049b85:	89 54 24 0c          	mov    %edx,0xc(%esp)
 8049b89:	8b 8c 24 88 a0 00 00 	mov    0xa088(%esp),%ecx
 8049b90:	89 4c 24 08          	mov    %ecx,0x8(%esp)
 8049b94:	c7 44 24 04 84 a3 04 	movl   $0x804a384,0x4(%esp)
 8049b9b:	08 
 8049b9c:	8d bc 24 44 60 00 00 	lea    0x6044(%esp),%edi
 8049ba3:	89 3c 24             	mov    %edi,(%esp)
 8049ba6:	e8 15 ed ff ff       	call   80488c0 <sprintf@plt>
 8049bab:	b8 00 00 00 00       	mov    $0x0,%eax
 8049bb0:	b9 ff ff ff ff       	mov    $0xffffffff,%ecx
 8049bb5:	f2 ae                	repnz scas %es:(%edi),%al
 8049bb7:	f7 d1                	not    %ecx
 8049bb9:	8d 79 ff             	lea    -0x1(%ecx),%edi
 8049bbc:	89 fb                	mov    %edi,%ebx
 8049bbe:	8d b4 24 44 60 00 00 	lea    0x6044(%esp),%esi
 8049bc5:	85 ff                	test   %edi,%edi
 8049bc7:	0f 85 3e fc ff ff    	jne    804980b <submitr+0x393>
 8049bcd:	e9 cb fc ff ff       	jmp    804989d <submitr+0x425>
 8049bd2:	8b bc 24 98 a0 00 00 	mov    0xa098(%esp),%edi
 8049bd9:	be d0 a3 04 08       	mov    $0x804a3d0,%esi
 8049bde:	b8 43 00 00 00       	mov    $0x43,%eax
 8049be3:	f7 c7 01 00 00 00    	test   $0x1,%edi
 8049be9:	74 1d                	je     8049c08 <submitr+0x790>
 8049beb:	0f b6 05 d0 a3 04 08 	movzbl 0x804a3d0,%eax
 8049bf2:	88 07                	mov    %al,(%edi)
 8049bf4:	8b bc 24 98 a0 00 00 	mov    0xa098(%esp),%edi
 8049bfb:	83 c7 01             	add    $0x1,%edi
 8049bfe:	be d1 a3 04 08       	mov    $0x804a3d1,%esi
 8049c03:	b8 42 00 00 00       	mov    $0x42,%eax
 8049c08:	f7 c7 02 00 00 00    	test   $0x2,%edi
 8049c0e:	74 0f                	je     8049c1f <submitr+0x7a7>
 8049c10:	0f b7 16             	movzwl (%esi),%edx
 8049c13:	66 89 17             	mov    %dx,(%edi)
 8049c16:	83 c7 02             	add    $0x2,%edi
 8049c19:	83 c6 02             	add    $0x2,%esi
 8049c1c:	83 e8 02             	sub    $0x2,%eax
 8049c1f:	89 c1                	mov    %eax,%ecx
 8049c21:	c1 e9 02             	shr    $0x2,%ecx
 8049c24:	f3 a5                	rep movsl %ds:(%esi),%es:(%edi)
 8049c26:	ba 00 00 00 00       	mov    $0x0,%edx
 8049c2b:	a8 02                	test   $0x2,%al
 8049c2d:	74 0b                	je     8049c3a <submitr+0x7c2>
 8049c2f:	0f b7 16             	movzwl (%esi),%edx
 8049c32:	66 89 17             	mov    %dx,(%edi)
 8049c35:	ba 02 00 00 00       	mov    $0x2,%edx
 8049c3a:	a8 01                	test   $0x1,%al
 8049c3c:	74 07                	je     8049c45 <submitr+0x7cd>
 8049c3e:	0f b6 04 16          	movzbl (%esi,%edx,1),%eax
 8049c42:	88 04 17             	mov    %al,(%edi,%edx,1)
 8049c45:	89 2c 24             	mov    %ebp,(%esp)
 8049c48:	e8 c3 ec ff ff       	call   8048910 <close@plt>
 8049c4d:	b8 ff ff ff ff       	mov    $0xffffffff,%eax
 8049c52:	81 c4 6c a0 00 00    	add    $0xa06c,%esp
 8049c58:	5b                   	pop    %ebx
 8049c59:	5e                   	pop    %esi
 8049c5a:	5f                   	pop    %edi
 8049c5b:	5d                   	pop    %ebp
 8049c5c:	c3                   	ret    

08049c5d <init_timeout>:
 8049c5d:	53                   	push   %ebx
 8049c5e:	83 ec 18             	sub    $0x18,%esp
 8049c61:	8b 5c 24 20          	mov    0x20(%esp),%ebx
 8049c65:	85 db                	test   %ebx,%ebx
 8049c67:	74 25                	je     8049c8e <init_timeout+0x31>
 8049c69:	c7 44 24 04 4c 94 04 	movl   $0x804944c,0x4(%esp)
 8049c70:	08 
 8049c71:	c7 04 24 0e 00 00 00 	movl   $0xe,(%esp)
 8049c78:	e8 53 eb ff ff       	call   80487d0 <signal@plt>
 8049c7d:	89 d8                	mov    %ebx,%eax
 8049c7f:	c1 f8 1f             	sar    $0x1f,%eax
 8049c82:	f7 d0                	not    %eax
 8049c84:	21 c3                	and    %eax,%ebx
 8049c86:	89 1c 24             	mov    %ebx,(%esp)
 8049c89:	e8 62 eb ff ff       	call   80487f0 <alarm@plt>
 8049c8e:	83 c4 18             	add    $0x18,%esp
 8049c91:	5b                   	pop    %ebx
 8049c92:	c3                   	ret    

08049c93 <init_driver>:
 8049c93:	57                   	push   %edi
 8049c94:	56                   	push   %esi
 8049c95:	53                   	push   %ebx
 8049c96:	83 ec 20             	sub    $0x20,%esp
 8049c99:	8b 74 24 30          	mov    0x30(%esp),%esi
 8049c9d:	c7 44 24 04 01 00 00 	movl   $0x1,0x4(%esp)
 8049ca4:	00 
 8049ca5:	c7 04 24 0d 00 00 00 	movl   $0xd,(%esp)
 8049cac:	e8 1f eb ff ff       	call   80487d0 <signal@plt>
 8049cb1:	c7 44 24 04 01 00 00 	movl   $0x1,0x4(%esp)
 8049cb8:	00 
 8049cb9:	c7 04 24 1d 00 00 00 	movl   $0x1d,(%esp)
 8049cc0:	e8 0b eb ff ff       	call   80487d0 <signal@plt>
 8049cc5:	c7 44 24 04 01 00 00 	movl   $0x1,0x4(%esp)
 8049ccc:	00 
 8049ccd:	c7 04 24 1d 00 00 00 	movl   $0x1d,(%esp)
 8049cd4:	e8 f7 ea ff ff       	call   80487d0 <signal@plt>
 8049cd9:	c7 44 24 08 00 00 00 	movl   $0x0,0x8(%esp)
 8049ce0:	00 
 8049ce1:	c7 44 24 04 01 00 00 	movl   $0x1,0x4(%esp)
 8049ce8:	00 
 8049ce9:	c7 04 24 02 00 00 00 	movl   $0x2,(%esp)
 8049cf0:	e8 db eb ff ff       	call   80488d0 <socket@plt>
 8049cf5:	89 c3                	mov    %eax,%ebx
 8049cf7:	85 c0                	test   %eax,%eax
 8049cf9:	79 4e                	jns    8049d49 <init_driver+0xb6>
 8049cfb:	c7 06 45 72 72 6f    	movl   $0x6f727245,(%esi)
 8049d01:	c7 46 04 72 3a 20 43 	movl   $0x43203a72,0x4(%esi)
 8049d08:	c7 46 08 6c 69 65 6e 	movl   $0x6e65696c,0x8(%esi)
 8049d0f:	c7 46 0c 74 20 75 6e 	movl   $0x6e752074,0xc(%esi)
 8049d16:	c7 46 10 61 62 6c 65 	movl   $0x656c6261,0x10(%esi)
 8049d1d:	c7 46 14 20 74 6f 20 	movl   $0x206f7420,0x14(%esi)
 8049d24:	c7 46 18 63 72 65 61 	movl   $0x61657263,0x18(%esi)
 8049d2b:	c7 46 1c 74 65 20 73 	movl   $0x73206574,0x1c(%esi)
 8049d32:	c7 46 20 6f 63 6b 65 	movl   $0x656b636f,0x20(%esi)
 8049d39:	66 c7 46 24 74 00    	movw   $0x74,0x24(%esi)
 8049d3f:	b8 ff ff ff ff       	mov    $0xffffffff,%eax
 8049d44:	e9 1b 01 00 00       	jmp    8049e64 <init_driver+0x1d1>
 8049d49:	c7 04 24 54 a4 04 08 	movl   $0x804a454,(%esp)
 8049d50:	e8 8b eb ff ff       	call   80488e0 <gethostbyname@plt>
 8049d55:	85 c0                	test   %eax,%eax
 8049d57:	75 68                	jne    8049dc1 <init_driver+0x12e>
 8049d59:	c7 06 45 72 72 6f    	movl   $0x6f727245,(%esi)
 8049d5f:	c7 46 04 72 3a 20 44 	movl   $0x44203a72,0x4(%esi)
 8049d66:	c7 46 08 4e 53 20 69 	movl   $0x6920534e,0x8(%esi)
 8049d6d:	c7 46 0c 73 20 75 6e 	movl   $0x6e752073,0xc(%esi)
 8049d74:	c7 46 10 61 62 6c 65 	movl   $0x656c6261,0x10(%esi)
 8049d7b:	c7 46 14 20 74 6f 20 	movl   $0x206f7420,0x14(%esi)
 8049d82:	c7 46 18 72 65 73 6f 	movl   $0x6f736572,0x18(%esi)
 8049d89:	c7 46 1c 6c 76 65 20 	movl   $0x2065766c,0x1c(%esi)
 8049d90:	c7 46 20 73 65 72 76 	movl   $0x76726573,0x20(%esi)
 8049d97:	c7 46 24 65 72 20 61 	movl   $0x61207265,0x24(%esi)
 8049d9e:	c7 46 28 64 64 72 65 	movl   $0x65726464,0x28(%esi)
 8049da5:	66 c7 46 2c 73 73    	movw   $0x7373,0x2c(%esi)
 8049dab:	c6 46 2e 00          	movb   $0x0,0x2e(%esi)
 8049daf:	89 1c 24             	mov    %ebx,(%esp)
 8049db2:	e8 59 eb ff ff       	call   8048910 <close@plt>
 8049db7:	b8 ff ff ff ff       	mov    $0xffffffff,%eax
 8049dbc:	e9 a3 00 00 00       	jmp    8049e64 <init_driver+0x1d1>
 8049dc1:	8d 7c 24 10          	lea    0x10(%esp),%edi
 8049dc5:	c7 44 24 10 00 00 00 	movl   $0x0,0x10(%esp)
 8049dcc:	00 
 8049dcd:	c7 44 24 14 00 00 00 	movl   $0x0,0x14(%esp)
 8049dd4:	00 
 8049dd5:	c7 44 24 18 00 00 00 	movl   $0x0,0x18(%esp)
 8049ddc:	00 
 8049ddd:	c7 44 24 1c 00 00 00 	movl   $0x0,0x1c(%esp)
 8049de4:	00 
 8049de5:	66 c7 44 24 10 02 00 	movw   $0x2,0x10(%esp)
 8049dec:	8b 50 0c             	mov    0xc(%eax),%edx
 8049def:	89 54 24 08          	mov    %edx,0x8(%esp)
 8049df3:	8d 54 24 14          	lea    0x14(%esp),%edx
 8049df7:	89 54 24 04          	mov    %edx,0x4(%esp)
 8049dfb:	8b 40 10             	mov    0x10(%eax),%eax
 8049dfe:	8b 00                	mov    (%eax),%eax
 8049e00:	89 04 24             	mov    %eax,(%esp)
 8049e03:	e8 f8 e9 ff ff       	call   8048800 <bcopy@plt>
 8049e08:	66 c7 44 24 12 3b 6e 	movw   $0x6e3b,0x12(%esp)
 8049e0f:	c7 44 24 08 10 00 00 	movl   $0x10,0x8(%esp)
 8049e16:	00 
 8049e17:	89 7c 24 04          	mov    %edi,0x4(%esp)
 8049e1b:	89 1c 24             	mov    %ebx,(%esp)
 8049e1e:	e8 dd ea ff ff       	call   8048900 <connect@plt>
 8049e23:	85 c0                	test   %eax,%eax
 8049e25:	79 27                	jns    8049e4e <init_driver+0x1bb>
 8049e27:	c7 44 24 08 54 a4 04 	movl   $0x804a454,0x8(%esp)
 8049e2e:	08 
 8049e2f:	c7 44 24 04 14 a4 04 	movl   $0x804a414,0x4(%esp)
 8049e36:	08 
 8049e37:	89 34 24             	mov    %esi,(%esp)
 8049e3a:	e8 81 ea ff ff       	call   80488c0 <sprintf@plt>
 8049e3f:	89 1c 24             	mov    %ebx,(%esp)
 8049e42:	e8 c9 ea ff ff       	call   8048910 <close@plt>
 8049e47:	b8 ff ff ff ff       	mov    $0xffffffff,%eax
 8049e4c:	eb 16                	jmp    8049e64 <init_driver+0x1d1>
 8049e4e:	89 1c 24             	mov    %ebx,(%esp)
 8049e51:	e8 ba ea ff ff       	call   8048910 <close@plt>
 8049e56:	66 c7 06 4f 4b       	movw   $0x4b4f,(%esi)
 8049e5b:	c6 46 02 00          	movb   $0x0,0x2(%esi)
 8049e5f:	b8 00 00 00 00       	mov    $0x0,%eax
 8049e64:	83 c4 20             	add    $0x20,%esp
 8049e67:	5b                   	pop    %ebx
 8049e68:	5e                   	pop    %esi
 8049e69:	5f                   	pop    %edi
 8049e6a:	c3                   	ret    

08049e6b <driver_post>:
 8049e6b:	53                   	push   %ebx
 8049e6c:	83 ec 28             	sub    $0x28,%esp
 8049e6f:	8b 44 24 30          	mov    0x30(%esp),%eax
 8049e73:	8b 5c 24 3c          	mov    0x3c(%esp),%ebx
 8049e77:	83 7c 24 38 00       	cmpl   $0x0,0x38(%esp)
 8049e7c:	74 24                	je     8049ea2 <driver_post+0x37>
 8049e7e:	8b 44 24 34          	mov    0x34(%esp),%eax
 8049e82:	89 44 24 04          	mov    %eax,0x4(%esp)
 8049e86:	c7 04 24 6c a4 04 08 	movl   $0x804a46c,(%esp)
 8049e8d:	e8 fe e8 ff ff       	call   8048790 <printf@plt>
 8049e92:	66 c7 03 4f 4b       	movw   $0x4b4f,(%ebx)
 8049e97:	c6 43 02 00          	movb   $0x0,0x2(%ebx)
 8049e9b:	b8 00 00 00 00       	mov    $0x0,%eax
 8049ea0:	eb 4d                	jmp    8049eef <driver_post+0x84>
 8049ea2:	85 c0                	test   %eax,%eax
 8049ea4:	74 3b                	je     8049ee1 <driver_post+0x76>
 8049ea6:	80 38 00             	cmpb   $0x0,(%eax)
 8049ea9:	74 36                	je     8049ee1 <driver_post+0x76>
 8049eab:	89 5c 24 18          	mov    %ebx,0x18(%esp)
 8049eaf:	8b 54 24 34          	mov    0x34(%esp),%edx
 8049eb3:	89 54 24 14          	mov    %edx,0x14(%esp)
 8049eb7:	c7 44 24 10 83 a4 04 	movl   $0x804a483,0x10(%esp)
 8049ebe:	08 
 8049ebf:	89 44 24 0c          	mov    %eax,0xc(%esp)
 8049ec3:	c7 44 24 08 8b a4 04 	movl   $0x804a48b,0x8(%esp)
 8049eca:	08 
 8049ecb:	c7 44 24 04 6e 3b 00 	movl   $0x3b6e,0x4(%esp)
 8049ed2:	00 
 8049ed3:	c7 04 24 54 a4 04 08 	movl   $0x804a454,(%esp)
 8049eda:	e8 99 f5 ff ff       	call   8049478 <submitr>
 8049edf:	eb 0e                	jmp    8049eef <driver_post+0x84>
 8049ee1:	66 c7 03 4f 4b       	movw   $0x4b4f,(%ebx)
 8049ee6:	c6 43 02 00          	movb   $0x0,0x2(%ebx)
 8049eea:	b8 00 00 00 00       	mov    $0x0,%eax
 8049eef:	83 c4 28             	add    $0x28,%esp
 8049ef2:	5b                   	pop    %ebx
 8049ef3:	c3                   	ret    
 8049ef4:	90                   	nop
 8049ef5:	90                   	nop
 8049ef6:	90                   	nop
 8049ef7:	90                   	nop
 8049ef8:	90                   	nop
 8049ef9:	90                   	nop
 8049efa:	90                   	nop
 8049efb:	90                   	nop
 8049efc:	90                   	nop
 8049efd:	90                   	nop
 8049efe:	90                   	nop
 8049eff:	90                   	nop

08049f00 <__libc_csu_fini>:
 8049f00:	55                   	push   %ebp
 8049f01:	89 e5                	mov    %esp,%ebp
 8049f03:	5d                   	pop    %ebp
 8049f04:	c3                   	ret    
 8049f05:	8d 74 26 00          	lea    0x0(%esi,%eiz,1),%esi
 8049f09:	8d bc 27 00 00 00 00 	lea    0x0(%edi,%eiz,1),%edi

08049f10 <__libc_csu_init>:
 8049f10:	55                   	push   %ebp
 8049f11:	89 e5                	mov    %esp,%ebp
 8049f13:	57                   	push   %edi
 8049f14:	56                   	push   %esi
 8049f15:	53                   	push   %ebx
 8049f16:	e8 4f 00 00 00       	call   8049f6a <__i686.get_pc_thunk.bx>
 8049f1b:	81 c3 e5 11 00 00    	add    $0x11e5,%ebx
 8049f21:	83 ec 1c             	sub    $0x1c,%esp
 8049f24:	e8 1f e8 ff ff       	call   8048748 <_init>
 8049f29:	8d bb 04 ff ff ff    	lea    -0xfc(%ebx),%edi
 8049f2f:	8d 83 00 ff ff ff    	lea    -0x100(%ebx),%eax
 8049f35:	29 c7                	sub    %eax,%edi
 8049f37:	c1 ff 02             	sar    $0x2,%edi
 8049f3a:	85 ff                	test   %edi,%edi
 8049f3c:	74 24                	je     8049f62 <__libc_csu_init+0x52>
 8049f3e:	31 f6                	xor    %esi,%esi
 8049f40:	8b 45 10             	mov    0x10(%ebp),%eax
 8049f43:	89 44 24 08          	mov    %eax,0x8(%esp)
 8049f47:	8b 45 0c             	mov    0xc(%ebp),%eax
 8049f4a:	89 44 24 04          	mov    %eax,0x4(%esp)
 8049f4e:	8b 45 08             	mov    0x8(%ebp),%eax
 8049f51:	89 04 24             	mov    %eax,(%esp)
 8049f54:	ff 94 b3 00 ff ff ff 	call   *-0x100(%ebx,%esi,4)
 8049f5b:	83 c6 01             	add    $0x1,%esi
 8049f5e:	39 fe                	cmp    %edi,%esi
 8049f60:	72 de                	jb     8049f40 <__libc_csu_init+0x30>
 8049f62:	83 c4 1c             	add    $0x1c,%esp
 8049f65:	5b                   	pop    %ebx
 8049f66:	5e                   	pop    %esi
 8049f67:	5f                   	pop    %edi
 8049f68:	5d                   	pop    %ebp
 8049f69:	c3                   	ret    

08049f6a <__i686.get_pc_thunk.bx>:
 8049f6a:	8b 1c 24             	mov    (%esp),%ebx
 8049f6d:	c3                   	ret    
 8049f6e:	90                   	nop
 8049f6f:	90                   	nop

Disassembly of section .fini:

08049f70 <_fini>:
 8049f70:	55                   	push   %ebp
 8049f71:	89 e5                	mov    %esp,%ebp
 8049f73:	53                   	push   %ebx
 8049f74:	83 ec 04             	sub    $0x4,%esp
 8049f77:	e8 00 00 00 00       	call   8049f7c <_fini+0xc>
 8049f7c:	5b                   	pop    %ebx
 8049f7d:	81 c3 84 11 00 00    	add    $0x1184,%ebx
 8049f83:	59                   	pop    %ecx
 8049f84:	5b                   	pop    %ebx
 8049f85:	c9                   	leave  
 8049f86:	c3                   	ret    
